cdxtbx_model_ext
Detector
p1
(tRp2
(I3
(dp3
S'hierarchy'
p4
(dp5
S'origin'
p6
(F-0.015755364138835493
F-0.061372044486954852
F-124.16990827878645
tp7
sS'fast_axis'
p8
(F1
F0
F0
tp9
sS'name'
p10
S'D0'
p11
sS'raw_image_offset'
p12
(I0
I0
tp13
sS'slow_axis'
p14
(F0
F1
F0
tp15
sS'material'
p16
S''
sS'mask'
p17
(lp18
sS'thickness'
p19
F0
sS'mu'
p20
F0
sS'gain'
p21
F1
sS'trusted_range'
p22
(F0
F0
tp23
sS'image_size'
p24
(I0
I0
tp25
sS'px_mm_strategy'
p26
(dp27
S'type'
p28
S'SimplePxMmStrategy'
p29
ssS'pedestal'
p30
F0
sS'identifier'
p31
S''
sS'type'
p32
S''
sS'children'
p33
(lp34
(dp35
S'origin'
p36
(F-4.8805659774458316
F-4.1049154312868517
F0.21838180187766909
tp37
sS'fast_axis'
p38
(F0
F1
F0
tp39
sS'name'
p40
S'D0Q0'
p41
sS'raw_image_offset'
p42
(I0
I0
tp43
sS'slow_axis'
p44
(F-1
F0
F0
tp45
sS'material'
p46
S''
sS'mask'
p47
(lp48
sS'thickness'
p49
F0
sS'mu'
p50
F0
sS'gain'
p51
F1
sS'trusted_range'
p52
(F0
F0
tp53
sS'image_size'
p54
(I0
I0
tp55
sS'px_mm_strategy'
p56
(dp57
S'type'
p58
S'SimplePxMmStrategy'
p59
ssS'pedestal'
p60
F0
sS'identifier'
p61
S''
sS'type'
p62
S''
sS'children'
p63
(lp64
(dp65
S'origin'
p66
(F21.74464192438311
F32.944186230988322
F0.024380341588638998
tp67
sS'fast_axis'
p68
(F0.99999639113183636
F0.0026865820857508963
F0
tp69
sS'name'
p70
S'D0Q0S0'
p71
sS'raw_image_offset'
p72
(I0
I0
tp73
sS'slow_axis'
p74
(F-0.0026865820857508963
F0.99999639113183636
F0
tp75
sS'material'
p76
S''
sS'mask'
p77
(lp78
sS'thickness'
p79
F0
sS'mu'
p80
F0
sS'gain'
p81
F1
sS'trusted_range'
p82
(F0
F0
tp83
sS'image_size'
p84
(I0
I0
tp85
sS'px_mm_strategy'
p86
(dp87
S'type'
p88
S'SimplePxMmStrategy'
p89
ssS'pedestal'
p90
F0
sS'identifier'
p91
S''
sS'type'
p92
S''
sS'children'
p93
(lp94
(dp95
S'panel'
p96
I0
sa(dp97
S'panel'
p98
I1
sasS'pixel_size'
p99
(F0
F0
tp100
sa(dp101
S'origin'
p102
(F21.753747503783572
F10.519261184309677
F0.024380341588695842
tp103
sS'fast_axis'
p104
(F0.99999857889572608
F0.0016858844943861368
F0
tp105
sS'name'
p106
S'D0Q0S1'
p107
sS'raw_image_offset'
p108
(I0
I0
tp109
sS'slow_axis'
p110
(F-0.0016858844943861368
F0.99999857889572608
F0
tp111
sS'material'
p112
S''
sS'mask'
p113
(lp114
sS'thickness'
p115
F0
sS'mu'
p116
F0
sS'gain'
p117
F1
sS'trusted_range'
p118
(F0
F0
tp119
sS'image_size'
p120
(I0
I0
tp121
sS'px_mm_strategy'
p122
(dp123
S'type'
p124
S'SimplePxMmStrategy'
p125
ssS'pedestal'
p126
F0
sS'identifier'
p127
S''
sS'type'
p128
S''
sS'children'
p129
(lp130
(dp131
S'panel'
p132
I2
sa(dp133
S'panel'
p134
I3
sasS'pixel_size'
p135
(F0
F0
tp136
sa(dp137
S'origin'
p138
(F33.173170153260322
F68.462235467011126
F0.024380341588710053
tp139
sS'fast_axis'
p140
(F0.00054851599749130393
F-0.99999984956508892
F0
tp141
sS'name'
p142
S'D0Q0S2'
p143
sS'raw_image_offset'
p144
(I0
I0
tp145
sS'slow_axis'
p146
(F0.99999984956508892
F0.00054851599749130393
F0
tp147
sS'material'
p148
S''
sS'mask'
p149
(lp150
sS'thickness'
p151
F0
sS'mu'
p152
F0
sS'gain'
p153
F1
sS'trusted_range'
p154
(F0
F0
tp155
sS'image_size'
p156
(I0
I0
tp157
sS'px_mm_strategy'
p158
(dp159
S'type'
p160
S'SimplePxMmStrategy'
p161
ssS'pedestal'
p162
F0
sS'identifier'
p163
S''
sS'type'
p164
S''
sS'children'
p165
(lp166
(dp167
S'panel'
p168
I4
sa(dp169
S'panel'
p170
I5
sasS'pixel_size'
p171
(F0
F0
tp172
sa(dp173
S'origin'
p174
(F10.543631212589371
F68.414836221442698
F0.024380341588766896
tp175
sS'fast_axis'
p176
(F0.000994731390184565
F-0.99999950525460823
F0
tp177
sS'name'
p178
S'D0Q0S3'
p179
sS'raw_image_offset'
p180
(I0
I0
tp181
sS'slow_axis'
p182
(F0.99999950525460823
F0.000994731390184565
F0
tp183
sS'material'
p184
S''
sS'mask'
p185
(lp186
sS'thickness'
p187
F0
sS'mu'
p188
F0
sS'gain'
p189
F1
sS'trusted_range'
p190
(F0
F0
tp191
sS'image_size'
p192
(I0
I0
tp193
sS'px_mm_strategy'
p194
(dp195
S'type'
p196
S'SimplePxMmStrategy'
p197
ssS'pedestal'
p198
F0
sS'identifier'
p199
S''
sS'type'
p200
S''
sS'children'
p201
(lp202
(dp203
S'panel'
p204
I6
sa(dp205
S'panel'
p206
I7
sasS'pixel_size'
p207
(F0
F0
tp208
sa(dp209
S'origin'
p210
(F68.699916624136677
F56.988975078914024
F0.024380341588610577
tp211
sS'fast_axis'
p212
(F-0.99999872361075193
F0.0015977411765511654
F0
tp213
sS'name'
p214
S'D0Q0S4'
p215
sS'raw_image_offset'
p216
(I0
I0
tp217
sS'slow_axis'
p218
(F-0.0015977411765511654
F-0.99999872361075193
F0
tp219
sS'material'
p220
S''
sS'mask'
p221
(lp222
sS'thickness'
p223
F0
sS'mu'
p224
F0
sS'gain'
p225
F1
sS'trusted_range'
p226
(F0
F0
tp227
sS'image_size'
p228
(I0
I0
tp229
sS'px_mm_strategy'
p230
(dp231
S'type'
p232
S'SimplePxMmStrategy'
p233
ssS'pedestal'
p234
F0
sS'identifier'
p235
S''
sS'type'
p236
S''
sS'children'
p237
(lp238
(dp239
S'panel'
p240
I8
sa(dp241
S'panel'
p242
I9
sasS'pixel_size'
p243
(F0
F0
tp244
sa(dp245
S'origin'
p246
(F68.807705441809645
F79.823692313920915
F0.024380341588610577
tp247
sS'fast_axis'
p248
(F-0.99998285746283355
F0.0058553206971558459
F0
tp249
sS'name'
p250
S'D0Q0S5'
p251
sS'raw_image_offset'
p252
(I0
I0
tp253
sS'slow_axis'
p254
(F-0.0058553206971558459
F-0.99998285746283355
F0
tp255
sS'material'
p256
S''
sS'mask'
p257
(lp258
sS'thickness'
p259
F0
sS'mu'
p260
F0
sS'gain'
p261
F1
sS'trusted_range'
p262
(F0
F0
tp263
sS'image_size'
p264
(I0
I0
tp265
sS'px_mm_strategy'
p266
(dp267
S'type'
p268
S'SimplePxMmStrategy'
p269
ssS'pedestal'
p270
F0
sS'identifier'
p271
S''
sS'type'
p272
S''
sS'children'
p273
(lp274
(dp275
S'panel'
p276
I10
sa(dp277
S'panel'
p278
I11
sasS'pixel_size'
p279
(F0
F0
tp280
sa(dp281
S'origin'
p282
(F77.911021092357629
F21.620727871340179
F0.024380341588610577
tp283
sS'fast_axis'
p284
(F-0.0038663345675761323
F-0.99999252570057329
F0
tp285
sS'name'
p286
S'D0Q0S6'
p287
sS'raw_image_offset'
p288
(I0
I0
tp289
sS'slow_axis'
p290
(F0.99999252570057329
F-0.0038663345675761323
F0
tp291
sS'material'
p292
S''
sS'mask'
p293
(lp294
sS'thickness'
p295
F0
sS'mu'
p296
F0
sS'gain'
p297
F1
sS'trusted_range'
p298
(F0
F0
tp299
sS'image_size'
p300
(I0
I0
tp301
sS'px_mm_strategy'
p302
(dp303
S'type'
p304
S'SimplePxMmStrategy'
p305
ssS'pedestal'
p306
F0
sS'identifier'
p307
S''
sS'type'
p308
S''
sS'children'
p309
(lp310
(dp311
S'panel'
p312
I12
sa(dp313
S'panel'
p314
I13
sasS'pixel_size'
p315
(F0
F0
tp316
sa(dp317
S'origin'
p318
(F54.930656018530939
F21.645214303897632
F0.024380341588638998
tp319
sS'fast_axis'
p320
(F-0.0012887139433810173
F-0.99999916960784141
F0
tp321
sS'name'
p322
S'D0Q0S7'
p323
sS'raw_image_offset'
p324
(I0
I0
tp325
sS'slow_axis'
p326
(F0.99999916960784141
F-0.0012887139433810173
F0
tp327
sS'material'
p328
S''
sS'mask'
p329
(lp330
sS'thickness'
p331
F0
sS'mu'
p332
F0
sS'gain'
p333
F1
sS'trusted_range'
p334
(F0
F0
tp335
sS'image_size'
p336
(I0
I0
tp337
sS'px_mm_strategy'
p338
(dp339
S'type'
p340
S'SimplePxMmStrategy'
p341
ssS'pedestal'
p342
F0
sS'identifier'
p343
S''
sS'type'
p344
S''
sS'children'
p345
(lp346
(dp347
S'panel'
p348
I14
sa(dp349
S'panel'
p350
I15
sasS'pixel_size'
p351
(F0
F0
tp352
sasS'pixel_size'
p353
(F0
F0
tp354
sa(dp355
S'origin'
p356
(F-2.7240227681455345
F5.8013382824546262
F0.21838180187766909
tp357
sS'fast_axis'
p358
(F0.99999996997685447
F-0.00024504344527143752
F0
tp359
sS'name'
p360
S'D0Q1'
p361
sS'raw_image_offset'
p362
(I0
I0
tp363
sS'slow_axis'
p364
(F0.00024504344527143752
F0.99999996997685447
F0
tp365
sS'material'
p366
S''
sS'mask'
p367
(lp368
sS'thickness'
p369
F0
sS'mu'
p370
F0
sS'gain'
p371
F1
sS'trusted_range'
p372
(F0
F0
tp373
sS'image_size'
p374
(I0
I0
tp375
sS'px_mm_strategy'
p376
(dp377
S'type'
p378
S'SimplePxMmStrategy'
p379
ssS'pedestal'
p380
F0
sS'identifier'
p381
S''
sS'type'
p382
S''
sS'children'
p383
(lp384
(dp385
S'origin'
p386
(F21.850757893667488
F33.388481974572528
F0.024380341588127397
tp387
sS'fast_axis'
p388
(F0.99998834299150918
F-0.0048284449977024748
F0
tp389
sS'name'
p390
S'D0Q1S0'
p391
sS'raw_image_offset'
p392
(I0
I0
tp393
sS'slow_axis'
p394
(F0.0048284449977024748
F0.99998834299150918
F0
tp395
sS'material'
p396
S''
sS'mask'
p397
(lp398
sS'thickness'
p399
F0
sS'mu'
p400
F0
sS'gain'
p401
F1
sS'trusted_range'
p402
(F0
F0
tp403
sS'image_size'
p404
(I0
I0
tp405
sS'px_mm_strategy'
p406
(dp407
S'type'
p408
S'SimplePxMmStrategy'
p409
ssS'pedestal'
p410
F0
sS'identifier'
p411
S''
sS'type'
p412
S''
sS'children'
p413
(lp414
(dp415
S'panel'
p416
I16
sa(dp417
S'panel'
p418
I17
sasS'pixel_size'
p419
(F0
F0
tp420
sa(dp421
S'origin'
p422
(F21.776252465503635
F10.44534653724641
F0.024380341588468458
tp423
sS'fast_axis'
p424
(F0.99999977900208115
F-0.00066482763844065115
F0
tp425
sS'name'
p426
S'D0Q1S1'
p427
sS'raw_image_offset'
p428
(I0
I0
tp429
sS'slow_axis'
p430
(F0.00066482763844065115
F0.99999977900208115
F0
tp431
sS'material'
p432
S''
sS'mask'
p433
(lp434
sS'thickness'
p435
F0
sS'mu'
p436
F0
sS'gain'
p437
F1
sS'trusted_range'
p438
(F0
F0
tp439
sS'image_size'
p440
(I0
I0
tp441
sS'px_mm_strategy'
p442
(dp443
S'type'
p444
S'SimplePxMmStrategy'
p445
ssS'pedestal'
p446
F0
sS'identifier'
p447
S''
sS'type'
p448
S''
sS'children'
p449
(lp450
(dp451
S'panel'
p452
I18
sa(dp453
S'panel'
p454
I19
sasS'pixel_size'
p455
(F0
F0
tp456
sa(dp457
S'origin'
p458
(F33.424312660507653
F68.479551285683812
F0.024380341588283717
tp459
sS'fast_axis'
p460
(F-0.00057614482091522437
F-0.99999983402855885
F0
tp461
sS'name'
p462
S'D0Q1S2'
p463
sS'raw_image_offset'
p464
(I0
I0
tp465
sS'slow_axis'
p466
(F0.99999983402855885
F-0.00057614482091522437
F0
tp467
sS'material'
p468
S''
sS'mask'
p469
(lp470
sS'thickness'
p471
F0
sS'mu'
p472
F0
sS'gain'
p473
F1
sS'trusted_range'
p474
(F0
F0
tp475
sS'image_size'
p476
(I0
I0
tp477
sS'px_mm_strategy'
p478
(dp479
S'type'
p480
S'SimplePxMmStrategy'
p481
ssS'pedestal'
p482
F0
sS'identifier'
p483
S''
sS'type'
p484
S''
sS'children'
p485
(lp486
(dp487
S'panel'
p488
I20
sa(dp489
S'panel'
p490
I21
sasS'pixel_size'
p491
(F0
F0
tp492
sa(dp493
S'origin'
p494
(F10.59342089663541
F68.41517319319226
F0.02438034158817003
tp495
sS'fast_axis'
p496
(F0.0010090065268755848
F-0.99999949095278495
F0
tp497
sS'name'
p498
S'D0Q1S3'
p499
sS'raw_image_offset'
p500
(I0
I0
tp501
sS'slow_axis'
p502
(F0.99999949095278495
F0.0010090065268755848
F0
tp503
sS'material'
p504
S''
sS'mask'
p505
(lp506
sS'thickness'
p507
F0
sS'mu'
p508
F0
sS'gain'
p509
F1
sS'trusted_range'
p510
(F0
F0
tp511
sS'image_size'
p512
(I0
I0
tp513
sS'px_mm_strategy'
p514
(dp515
S'type'
p516
S'SimplePxMmStrategy'
p517
ssS'pedestal'
p518
F0
sS'identifier'
p519
S''
sS'type'
p520
S''
sS'children'
p521
(lp522
(dp523
S'panel'
p524
I22
sa(dp525
S'panel'
p526
I23
sasS'pixel_size'
p527
(F0
F0
tp528
sa(dp529
S'origin'
p530
(F68.547215029913062
F56.653327276730259
F0.024380341588440036
tp531
sS'fast_axis'
p532
(F-0.99999779995820604
F0.0020976364670799328
F0
tp533
sS'name'
p534
S'D0Q1S4'
p535
sS'raw_image_offset'
p536
(I0
I0
tp537
sS'slow_axis'
p538
(F-0.0020976364670799328
F-0.99999779995820604
F0
tp539
sS'material'
p540
S''
sS'mask'
p541
(lp542
sS'thickness'
p543
F0
sS'mu'
p544
F0
sS'gain'
p545
F1
sS'trusted_range'
p546
(F0
F0
tp547
sS'image_size'
p548
(I0
I0
tp549
sS'px_mm_strategy'
p550
(dp551
S'type'
p552
S'SimplePxMmStrategy'
p553
ssS'pedestal'
p554
F0
sS'identifier'
p555
S''
sS'type'
p556
S''
sS'children'
p557
(lp558
(dp559
S'panel'
p560
I24
sa(dp561
S'panel'
p562
I25
sasS'pixel_size'
p563
(F0
F0
tp564
sa(dp565
S'origin'
p566
(F68.542693785161433
F79.083773091579999
F0.024380341588610566
tp567
sS'fast_axis'
p568
(F-0.99998472876857458
F0.0055265024781088155
F0
tp569
sS'name'
p570
S'D0Q1S5'
p571
sS'raw_image_offset'
p572
(I0
I0
tp573
sS'slow_axis'
p574
(F-0.0055265024781088155
F-0.99998472876857458
F0
tp575
sS'material'
p576
S''
sS'mask'
p577
(lp578
sS'thickness'
p579
F0
sS'mu'
p580
F0
sS'gain'
p581
F1
sS'trusted_range'
p582
(F0
F0
tp583
sS'image_size'
p584
(I0
I0
tp585
sS'px_mm_strategy'
p586
(dp587
S'type'
p588
S'SimplePxMmStrategy'
p589
ssS'pedestal'
p590
F0
sS'identifier'
p591
S''
sS'type'
p592
S''
sS'children'
p593
(lp594
(dp595
S'panel'
p596
I26
sa(dp597
S'panel'
p598
I27
sasS'pixel_size'
p599
(F0
F0
tp600
sa(dp601
S'origin'
p602
(F77.338176764464734
F21.067249385166992
F0.024380341588383193
tp603
sS'fast_axis'
p604
(F0.0049324867228138147
F-0.99998783521337364
F0
tp605
sS'name'
p606
S'D0Q1S6'
p607
sS'raw_image_offset'
p608
(I0
I0
tp609
sS'slow_axis'
p610
(F0.99998783521337364
F0.0049324867228138147
F0
tp611
sS'material'
p612
S''
sS'mask'
p613
(lp614
sS'thickness'
p615
F0
sS'mu'
p616
F0
sS'gain'
p617
F1
sS'trusted_range'
p618
(F0
F0
tp619
sS'image_size'
p620
(I0
I0
tp621
sS'px_mm_strategy'
p622
(dp623
S'type'
p624
S'SimplePxMmStrategy'
p625
ssS'pedestal'
p626
F0
sS'identifier'
p627
S''
sS'type'
p628
S''
sS'children'
p629
(lp630
(dp631
S'panel'
p632
I28
sa(dp633
S'panel'
p634
I29
sasS'pixel_size'
p635
(F0
F0
tp636
sa(dp637
S'origin'
p638
(F54.699614041780244
F21.023600479396801
F0.024380341588297928
tp639
sS'fast_axis'
p640
(F0.00038637483520818081
F-0.99999992535724058
F0
tp641
sS'name'
p642
S'D0Q1S7'
p643
sS'raw_image_offset'
p644
(I0
I0
tp645
sS'slow_axis'
p646
(F0.99999992535724058
F0.00038637483520818081
F0
tp647
sS'material'
p648
S''
sS'mask'
p649
(lp650
sS'thickness'
p651
F0
sS'mu'
p652
F0
sS'gain'
p653
F1
sS'trusted_range'
p654
(F0
F0
tp655
sS'image_size'
p656
(I0
I0
tp657
sS'px_mm_strategy'
p658
(dp659
S'type'
p660
S'SimplePxMmStrategy'
p661
ssS'pedestal'
p662
F0
sS'identifier'
p663
S''
sS'type'
p664
S''
sS'children'
p665
(lp666
(dp667
S'panel'
p668
I30
sa(dp669
S'panel'
p670
I31
sasS'pixel_size'
p671
(F0
F0
tp672
sasS'pixel_size'
p673
(F0
F0
tp674
sa(dp675
S'origin'
p676
(F6.064718700658192
F3.8914879950966084
F0.21838180187766909
tp677
sS'fast_axis'
p678
(F0.00044216191265747677
F-0.99999990224641677
F0
tp679
sS'name'
p680
S'D0Q2'
p681
sS'raw_image_offset'
p682
(I0
I0
tp683
sS'slow_axis'
p684
(F0.99999990224641677
F0.00044216191265747677
F0
tp685
sS'material'
p686
S''
sS'mask'
p687
(lp688
sS'thickness'
p689
F0
sS'mu'
p690
F0
sS'gain'
p691
F1
sS'trusted_range'
p692
(F0
F0
tp693
sS'image_size'
p694
(I0
I0
tp695
sS'px_mm_strategy'
p696
(dp697
S'type'
p698
S'SimplePxMmStrategy'
p699
ssS'pedestal'
p700
F0
sS'identifier'
p701
S''
sS'type'
p702
S''
sS'children'
p703
(lp704
(dp705
S'origin'
p706
(F21.771487913315777
F33.273991441531514
F0.024380341588525312
tp707
sS'fast_axis'
p708
(F0.99999637794415797
F0.0026914863115114949
F0
tp709
sS'name'
p710
S'D0Q2S0'
p711
sS'raw_image_offset'
p712
(I0
I0
tp713
sS'slow_axis'
p714
(F-0.0026914863115114949
F0.99999637794415797
F0
tp715
sS'material'
p716
S''
sS'mask'
p717
(lp718
sS'thickness'
p719
F0
sS'mu'
p720
F0
sS'gain'
p721
F1
sS'trusted_range'
p722
(F0
F0
tp723
sS'image_size'
p724
(I0
I0
tp725
sS'px_mm_strategy'
p726
(dp727
S'type'
p728
S'SimplePxMmStrategy'
p729
ssS'pedestal'
p730
F0
sS'identifier'
p731
S''
sS'type'
p732
S''
sS'children'
p733
(lp734
(dp735
S'panel'
p736
I32
sa(dp737
S'panel'
p738
I33
sasS'pixel_size'
p739
(F0
F0
tp740
sa(dp741
S'origin'
p742
(F21.791885265829869
F10.42667175233156
F0.024380341588525312
tp743
sS'fast_axis'
p744
(F0.99999754275570207
F-0.0022168632249333371
F0
tp745
sS'name'
p746
S'D0Q2S1'
p747
sS'raw_image_offset'
p748
(I0
I0
tp749
sS'slow_axis'
p750
(F0.0022168632249333371
F0.99999754275570207
F0
tp751
sS'material'
p752
S''
sS'mask'
p753
(lp754
sS'thickness'
p755
F0
sS'mu'
p756
F0
sS'gain'
p757
F1
sS'trusted_range'
p758
(F0
F0
tp759
sS'image_size'
p760
(I0
I0
tp761
sS'px_mm_strategy'
p762
(dp763
S'type'
p764
S'SimplePxMmStrategy'
p765
ssS'pedestal'
p766
F0
sS'identifier'
p767
S''
sS'type'
p768
S''
sS'children'
p769
(lp770
(dp771
S'panel'
p772
I34
sa(dp773
S'panel'
p774
I35
sasS'pixel_size'
p775
(F0
F0
tp776
sa(dp777
S'origin'
p778
(F33.189494040123925
F68.21353621700176
F0.024380341588567944
tp779
sS'fast_axis'
p780
(F0.0010542647161556657
F-0.99999944426279985
F0
tp781
sS'name'
p782
S'D0Q2S2'
p783
sS'raw_image_offset'
p784
(I0
I0
tp785
sS'slow_axis'
p786
(F0.99999944426279985
F0.0010542647161556657
F0
tp787
sS'material'
p788
S''
sS'mask'
p789
(lp790
sS'thickness'
p791
F0
sS'mu'
p792
F0
sS'gain'
p793
F1
sS'trusted_range'
p794
(F0
F0
tp795
sS'image_size'
p796
(I0
I0
tp797
sS'px_mm_strategy'
p798
(dp799
S'type'
p800
S'SimplePxMmStrategy'
p801
ssS'pedestal'
p802
F0
sS'identifier'
p803
S''
sS'type'
p804
S''
sS'children'
p805
(lp806
(dp807
S'panel'
p808
I36
sa(dp809
S'panel'
p810
I37
sasS'pixel_size'
p811
(F0
F0
tp812
sa(dp813
S'origin'
p814
(F10.572653759044314
F68.204954223974582
F0.024380341588567944
tp815
sS'fast_axis'
p816
(F-0.00063273769411830805
F-0.99999979982148524
F0
tp817
sS'name'
p818
S'D0Q2S3'
p819
sS'raw_image_offset'
p820
(I0
I0
tp821
sS'slow_axis'
p822
(F0.99999979982148524
F-0.00063273769411830805
F0
tp823
sS'material'
p824
S''
sS'mask'
p825
(lp826
sS'thickness'
p827
F0
sS'mu'
p828
F0
sS'gain'
p829
F1
sS'trusted_range'
p830
(F0
F0
tp831
sS'image_size'
p832
(I0
I0
tp833
sS'px_mm_strategy'
p834
(dp835
S'type'
p836
S'SimplePxMmStrategy'
p837
ssS'pedestal'
p838
F0
sS'identifier'
p839
S''
sS'type'
p840
S''
sS'children'
p841
(lp842
(dp843
S'panel'
p844
I38
sa(dp845
S'panel'
p846
I39
sasS'pixel_size'
p847
(F0
F0
tp848
sa(dp849
S'origin'
p850
(F68.377597721937008
F56.919494367430126
F0.024380341588553733
tp851
sS'fast_axis'
p852
(F-0.99999982798643561
F0.00058653823359525984
F0
tp853
sS'name'
p854
S'D0Q2S4'
p855
sS'raw_image_offset'
p856
(I0
I0
tp857
sS'slow_axis'
p858
(F-0.00058653823359525984
F-0.99999982798643561
F0
tp859
sS'material'
p860
S''
sS'mask'
p861
(lp862
sS'thickness'
p863
F0
sS'mu'
p864
F0
sS'gain'
p865
F1
sS'trusted_range'
p866
(F0
F0
tp867
sS'image_size'
p868
(I0
I0
tp869
sS'px_mm_strategy'
p870
(dp871
S'type'
p872
S'SimplePxMmStrategy'
p873
ssS'pedestal'
p874
F0
sS'identifier'
p875
S''
sS'type'
p876
S''
sS'children'
p877
(lp878
(dp879
S'panel'
p880
I40
sa(dp881
S'panel'
p882
I41
sasS'pixel_size'
p883
(F0
F0
tp884
sa(dp885
S'origin'
p886
(F68.286325711419877
F79.302090815872887
F0.02438034158866742
tp887
sS'fast_axis'
p888
(F-0.99997528293987059
F-0.0070308967654042114
F0
tp889
sS'name'
p890
S'D0Q2S5'
p891
sS'raw_image_offset'
p892
(I0
I0
tp893
sS'slow_axis'
p894
(F0.0070308967654042114
F-0.99997528293987059
F0
tp895
sS'material'
p896
S''
sS'mask'
p897
(lp898
sS'thickness'
p899
F0
sS'mu'
p900
F0
sS'gain'
p901
F1
sS'trusted_range'
p902
(F0
F0
tp903
sS'image_size'
p904
(I0
I0
tp905
sS'px_mm_strategy'
p906
(dp907
S'type'
p908
S'SimplePxMmStrategy'
p909
ssS'pedestal'
p910
F0
sS'identifier'
p911
S''
sS'type'
p912
S''
sS'children'
p913
(lp914
(dp915
S'panel'
p916
I42
sa(dp917
S'panel'
p918
I43
sasS'pixel_size'
p919
(F0
F0
tp920
sa(dp921
S'origin'
p922
(F77.199377243048261
F21.711948828486538
F0.024380341588610577
tp923
sS'fast_axis'
p924
(F0.0038054349917685244
F-0.99999275930604792
F0
tp925
sS'name'
p926
S'D0Q2S6'
p927
sS'raw_image_offset'
p928
(I0
I0
tp929
sS'slow_axis'
p930
(F0.99999275930604792
F0.0038054349917685244
F0
tp931
sS'material'
p932
S''
sS'mask'
p933
(lp934
sS'thickness'
p935
F0
sS'mu'
p936
F0
sS'gain'
p937
F1
sS'trusted_range'
p938
(F0
F0
tp939
sS'image_size'
p940
(I0
I0
tp941
sS'px_mm_strategy'
p942
(dp943
S'type'
p944
S'SimplePxMmStrategy'
p945
ssS'pedestal'
p946
F0
sS'identifier'
p947
S''
sS'type'
p948
S''
sS'children'
p949
(lp950
(dp951
S'panel'
p952
I44
sa(dp953
S'panel'
p954
I45
sasS'pixel_size'
p955
(F0
F0
tp956
sa(dp957
S'origin'
p958
(F54.690085726789945
F21.650007474201264
F0.024380341588582155
tp959
sS'fast_axis'
p960
(F0.00085168792157559237
F-0.9999996373137765
F0
tp961
sS'name'
p962
S'D0Q2S7'
p963
sS'raw_image_offset'
p964
(I0
I0
tp965
sS'slow_axis'
p966
(F0.9999996373137765
F0.00085168792157559237
F0
tp967
sS'material'
p968
S''
sS'mask'
p969
(lp970
sS'thickness'
p971
F0
sS'mu'
p972
F0
sS'gain'
p973
F1
sS'trusted_range'
p974
(F0
F0
tp975
sS'image_size'
p976
(I0
I0
tp977
sS'px_mm_strategy'
p978
(dp979
S'type'
p980
S'SimplePxMmStrategy'
p981
ssS'pedestal'
p982
F0
sS'identifier'
p983
S''
sS'type'
p984
S''
sS'children'
p985
(lp986
(dp987
S'panel'
p988
I46
sa(dp989
S'panel'
p990
I47
sasS'pixel_size'
p991
(F0
F0
tp992
sasS'pixel_size'
p993
(F0
F0
tp994
sa(dp995
S'origin'
p996
(F4.5403442904563605
F-5.9425243606498519
F0.21838180187766909
tp997
sS'fast_axis'
p998
(F-0.99999993032598933
F-0.00037329347222584243
F0
tp999
sS'name'
p1000
S'D0Q3'
p1001
sS'raw_image_offset'
p1002
(I0
I0
tp1003
sS'slow_axis'
p1004
(F0.00037329347222584243
F-0.99999993032598933
F0
tp1005
sS'material'
p1006
S''
sS'mask'
p1007
(lp1008
sS'thickness'
p1009
F0
sS'mu'
p1010
F0
sS'gain'
p1011
F1
sS'trusted_range'
p1012
(F0
F0
tp1013
sS'image_size'
p1014
(I0
I0
tp1015
sS'px_mm_strategy'
p1016
(dp1017
S'type'
p1018
S'SimplePxMmStrategy'
p1019
ssS'pedestal'
p1020
F0
sS'identifier'
p1021
S''
sS'type'
p1022
S''
sS'children'
p1023
(lp1024
(dp1025
S'origin'
p1026
(F21.65969796662613
F32.926005947920082
F0.024380341588923216
tp1027
sS'fast_axis'
p1028
(F0.99999520631811756
F0.0030963431311364885
F0
tp1029
sS'name'
p1030
S'D0Q3S0'
p1031
sS'raw_image_offset'
p1032
(I0
I0
tp1033
sS'slow_axis'
p1034
(F-0.0030963431311364885
F0.99999520631811756
F0
tp1035
sS'material'
p1036
S''
sS'mask'
p1037
(lp1038
sS'thickness'
p1039
F0
sS'mu'
p1040
F0
sS'gain'
p1041
F1
sS'trusted_range'
p1042
(F0
F0
tp1043
sS'image_size'
p1044
(I0
I0
tp1045
sS'px_mm_strategy'
p1046
(dp1047
S'type'
p1048
S'SimplePxMmStrategy'
p1049
ssS'pedestal'
p1050
F0
sS'identifier'
p1051
S''
sS'type'
p1052
S''
sS'children'
p1053
(lp1054
(dp1055
S'panel'
p1056
I48
sa(dp1057
S'panel'
p1058
I49
sasS'pixel_size'
p1059
(F0
F0
tp1060
sa(dp1061
S'origin'
p1062
(F21.753150451188876
F10.443898582187321
F0.024380341588980059
tp1063
sS'fast_axis'
p1064
(F0.99999997950682251
F0.00020245086971443796
F0
tp1065
sS'name'
p1066
S'D0Q3S1'
p1067
sS'raw_image_offset'
p1068
(I0
I0
tp1069
sS'slow_axis'
p1070
(F-0.00020245086971443796
F0.99999997950682251
F0
tp1071
sS'material'
p1072
S''
sS'mask'
p1073
(lp1074
sS'thickness'
p1075
F0
sS'mu'
p1076
F0
sS'gain'
p1077
F1
sS'trusted_range'
p1078
(F0
F0
tp1079
sS'image_size'
p1080
(I0
I0
tp1081
sS'px_mm_strategy'
p1082
(dp1083
S'type'
p1084
S'SimplePxMmStrategy'
p1085
ssS'pedestal'
p1086
F0
sS'identifier'
p1087
S''
sS'type'
p1088
S''
sS'children'
p1089
(lp1090
(dp1091
S'panel'
p1092
I50
sa(dp1093
S'panel'
p1094
I51
sasS'pixel_size'
p1095
(F0
F0
tp1096
sa(dp1097
S'origin'
p1098
(F33.238272959719787
F68.581417927839496
F0.024380341588795318
tp1099
sS'fast_axis'
p1100
(F0.00042245066914044097
F-0.99999991076771211
F0
tp1101
sS'name'
p1102
S'D0Q3S2'
p1103
sS'raw_image_offset'
p1104
(I0
I0
tp1105
sS'slow_axis'
p1106
(F0.99999991076771211
F0.00042245066914044097
F0
tp1107
sS'material'
p1108
S''
sS'mask'
p1109
(lp1110
sS'thickness'
p1111
F0
sS'mu'
p1112
F0
sS'gain'
p1113
F1
sS'trusted_range'
p1114
(F0
F0
tp1115
sS'image_size'
p1116
(I0
I0
tp1117
sS'px_mm_strategy'
p1118
(dp1119
S'type'
p1120
S'SimplePxMmStrategy'
p1121
ssS'pedestal'
p1122
F0
sS'identifier'
p1123
S''
sS'type'
p1124
S''
sS'children'
p1125
(lp1126
(dp1127
S'panel'
p1128
I52
sa(dp1129
S'panel'
p1130
I53
sasS'pixel_size'
p1131
(F0
F0
tp1132
sa(dp1133
S'origin'
p1134
(F10.59829817560515
F68.468565254315834
F0.024380341588852161
tp1135
sS'fast_axis'
p1136
(F-0.0015472592376591637
F-0.99999880299370936
F0
tp1137
sS'name'
p1138
S'D0Q3S3'
p1139
sS'raw_image_offset'
p1140
(I0
I0
tp1141
sS'slow_axis'
p1142
(F0.99999880299370936
F-0.0015472592376591637
F0
tp1143
sS'material'
p1144
S''
sS'mask'
p1145
(lp1146
sS'thickness'
p1147
F0
sS'mu'
p1148
F0
sS'gain'
p1149
F1
sS'trusted_range'
p1150
(F0
F0
tp1151
sS'image_size'
p1152
(I0
I0
tp1153
sS'px_mm_strategy'
p1154
(dp1155
S'type'
p1156
S'SimplePxMmStrategy'
p1157
ssS'pedestal'
p1158
F0
sS'identifier'
p1159
S''
sS'type'
p1160
S''
sS'children'
p1161
(lp1162
(dp1163
S'panel'
p1164
I54
sa(dp1165
S'panel'
p1166
I55
sasS'pixel_size'
p1167
(F0
F0
tp1168
sa(dp1169
S'origin'
p1170
(F68.533262769221608
F56.83828160894938
F0.024380341588724264
tp1171
sS'fast_axis'
p1172
(F-0.99999645913472113
F-0.0026611497552795735
F0
tp1173
sS'name'
p1174
S'D0Q3S4'
p1175
sS'raw_image_offset'
p1176
(I0
I0
tp1177
sS'slow_axis'
p1178
(F0.0026611497552795735
F-0.99999645913472113
F0
tp1179
sS'material'
p1180
S''
sS'mask'
p1181
(lp1182
sS'thickness'
p1183
F0
sS'mu'
p1184
F0
sS'gain'
p1185
F1
sS'trusted_range'
p1186
(F0
F0
tp1187
sS'image_size'
p1188
(I0
I0
tp1189
sS'px_mm_strategy'
p1190
(dp1191
S'type'
p1192
S'SimplePxMmStrategy'
p1193
ssS'pedestal'
p1194
F0
sS'identifier'
p1195
S''
sS'type'
p1196
S''
sS'children'
p1197
(lp1198
(dp1199
S'panel'
p1200
I56
sa(dp1201
S'panel'
p1202
I57
sasS'pixel_size'
p1203
(F0
F0
tp1204
sa(dp1205
S'origin'
p1206
(F68.496290905360127
F79.425676697288893
F0.024380341588610577
tp1207
sS'fast_axis'
p1208
(F-0.99999331826688187
F-0.0036556013993288773
F0
tp1209
sS'name'
p1210
S'D0Q3S5'
p1211
sS'raw_image_offset'
p1212
(I0
I0
tp1213
sS'slow_axis'
p1214
(F0.0036556013993288773
F-0.99999331826688187
F0
tp1215
sS'material'
p1216
S''
sS'mask'
p1217
(lp1218
sS'thickness'
p1219
F0
sS'mu'
p1220
F0
sS'gain'
p1221
F1
sS'trusted_range'
p1222
(F0
F0
tp1223
sS'image_size'
p1224
(I0
I0
tp1225
sS'px_mm_strategy'
p1226
(dp1227
S'type'
p1228
S'SimplePxMmStrategy'
p1229
ssS'pedestal'
p1230
F0
sS'identifier'
p1231
S''
sS'type'
p1232
S''
sS'children'
p1233
(lp1234
(dp1235
S'panel'
p1236
I58
sa(dp1237
S'panel'
p1238
I59
sasS'pixel_size'
p1239
(F0
F0
tp1240
sa(dp1241
S'origin'
p1242
(F78.132418849181889
F21.549134848801849
F0.024380341588695842
tp1243
sS'fast_axis'
p1244
(F0.000945477655971769
F-0.99999955303590127
F0
tp1245
sS'name'
p1246
S'D0Q3S6'
p1247
sS'raw_image_offset'
p1248
(I0
I0
tp1249
sS'slow_axis'
p1250
(F0.99999955303590127
F0.000945477655971769
F0
tp1251
sS'material'
p1252
S''
sS'mask'
p1253
(lp1254
sS'thickness'
p1255
F0
sS'mu'
p1256
F0
sS'gain'
p1257
F1
sS'trusted_range'
p1258
(F0
F0
tp1259
sS'image_size'
p1260
(I0
I0
tp1261
sS'px_mm_strategy'
p1262
(dp1263
S'type'
p1264
S'SimplePxMmStrategy'
p1265
ssS'pedestal'
p1266
F0
sS'identifier'
p1267
S''
sS'type'
p1268
S''
sS'children'
p1269
(lp1270
(dp1271
S'panel'
p1272
I60
sa(dp1273
S'panel'
p1274
I61
sasS'pixel_size'
p1275
(F0
F0
tp1276
sa(dp1277
S'origin'
p1278
(F54.667535973235211
F21.535334883577413
F0.024380341589036902
tp1279
sS'fast_axis'
p1280
(F0.002990353727375843
F-0.99999552888229726
F0
tp1281
sS'name'
p1282
S'D0Q3S7'
p1283
sS'raw_image_offset'
p1284
(I0
I0
tp1285
sS'slow_axis'
p1286
(F0.99999552888229726
F0.002990353727375843
F0
tp1287
sS'material'
p1288
S''
sS'mask'
p1289
(lp1290
sS'thickness'
p1291
F0
sS'mu'
p1292
F0
sS'gain'
p1293
F1
sS'trusted_range'
p1294
(F0
F0
tp1295
sS'image_size'
p1296
(I0
I0
tp1297
sS'px_mm_strategy'
p1298
(dp1299
S'type'
p1300
S'SimplePxMmStrategy'
p1301
ssS'pedestal'
p1302
F0
sS'identifier'
p1303
S''
sS'type'
p1304
S''
sS'children'
p1305
(lp1306
(dp1307
S'panel'
p1308
I62
sa(dp1309
S'panel'
p1310
I63
sasS'pixel_size'
p1311
(F0
F0
tp1312
sasS'pixel_size'
p1313
(F0
F0
tp1314
sasS'pixel_size'
p1315
(F0
F0
tp1316
ssS'panels'
p1317
(lp1318
cdxtbx_model_ext
Panel
p1319
(tRp1320
(I2
(dp1321
(dp1322
S'origin'
p1323
(F-21.489360000000001
F10.1676
F0
tp1324
sS'mu'
p1325
F0
sS'fast_axis'
p1326
(F1
F0
F0
tp1327
sS'parent_slow_axis'
p1328
(F-0.99999639113183636
F-0.0026865820857508963
F0
tp1329
sS'name'
p1330
S'ARRAY_D0Q0S0A0'
p1331
sS'raw_image_offset'
p1332
(I0
I0
tp1333
sS'slow_axis'
p1334
(F0
F-1
F1.2246467991473532e-16
tp1335
sS'material'
p1336
S''
sS'mask'
p1337
(lp1338
sS'thickness'
p1339
F0
sS'parent_origin'
p1340
(F-37.840507572572989
F17.578354448609304
F-123.92714613532014
tp1341
sS'parent_fast_axis'
p1342
(F-0.0026865820857508963
F0.99999639113183636
F0
tp1343
sS'gain'
p1344
F1
sS'trusted_range'
p1345
(F-400
F90000
tp1346
sS'image_size'
p1347
(I194
I185
tp1348
sS'px_mm_strategy'
p1349
cdxtbx_model_ext
SimplePxMmStrategy
p1350
(tRp1351
sS'pedestal'
p1352
F0
sS'identifier'
p1353
S''
sS'type'
p1354
S''
sS'pixel_size'
p1355
(F0.10992
F0.10992
tp1356
stbag1319
(tRp1357
(I2
(dp1358
(dp1359
S'origin'
p1360
(F0.16487999999999658
F10.1676
F0
tp1361
sS'mu'
p1362
F0
sS'fast_axis'
p1363
(F1
F0
F0
tp1364
sS'parent_slow_axis'
p1365
(F-0.99999639113183636
F-0.0026865820857508963
F0
tp1366
sS'name'
p1367
S'ARRAY_D0Q0S0A1'
p1368
sS'raw_image_offset'
p1369
(I0
I0
tp1370
sS'slow_axis'
p1371
(F0
F-1
F1.2246467991473532e-16
tp1372
sS'material'
p1373
S''
sS'mask'
p1374
(lp1375
sS'thickness'
p1376
F0
sS'parent_origin'
p1377
(F-37.840507572572989
F17.578354448609304
F-123.92714613532014
tp1378
sS'parent_fast_axis'
p1379
(F-0.0026865820857508963
F0.99999639113183636
F0
tp1380
sS'gain'
p1381
F1
sS'trusted_range'
p1382
(F-400
F90000
tp1383
sS'image_size'
p1384
(I194
I185
tp1385
sS'px_mm_strategy'
p1386
g1350
(tRp1387
sS'pedestal'
p1388
F0
sS'identifier'
p1389
S''
sS'type'
p1390
S''
sS'pixel_size'
p1391
(F0.10992
F0.10992
tp1392
stbag1319
(tRp1393
(I2
(dp1394
(dp1395
S'origin'
p1396
(F-21.489360000000001
F10.1676
F0
tp1397
sS'mu'
p1398
F0
sS'fast_axis'
p1399
(F1
F0
F0
tp1400
sS'parent_slow_axis'
p1401
(F-0.99999857889572608
F-0.0016858844943861368
F0
tp1402
sS'name'
p1403
S'ARRAY_D0Q0S1A0'
p1404
sS'raw_image_offset'
p1405
(I0
I0
tp1406
sS'slow_axis'
p1407
(F0
F-1
F1.2246467991473532e-16
tp1408
sS'material'
p1409
S''
sS'mask'
p1410
(lp1411
sS'thickness'
p1412
F0
sS'parent_origin'
p1413
(F-15.415582525894344
F17.587460028009765
F-123.92714613532009
tp1414
sS'parent_fast_axis'
p1415
(F-0.0016858844943861368
F0.99999857889572608
F0
tp1416
sS'gain'
p1417
F1
sS'trusted_range'
p1418
(F-400
F90000
tp1419
sS'image_size'
p1420
(I194
I185
tp1421
sS'px_mm_strategy'
p1422
g1350
(tRp1423
sS'pedestal'
p1424
F0
sS'identifier'
p1425
S''
sS'type'
p1426
S''
sS'pixel_size'
p1427
(F0.10992
F0.10992
tp1428
stbag1319
(tRp1429
(I2
(dp1430
(dp1431
S'origin'
p1432
(F0.16487999999999836
F10.1676
F0
tp1433
sS'mu'
p1434
F0
sS'fast_axis'
p1435
(F1
F0
F0
tp1436
sS'parent_slow_axis'
p1437
(F-0.99999857889572608
F-0.0016858844943861368
F0
tp1438
sS'name'
p1439
S'ARRAY_D0Q0S1A1'
p1440
sS'raw_image_offset'
p1441
(I0
I0
tp1442
sS'slow_axis'
p1443
(F0
F-1
F1.2246467991473532e-16
tp1444
sS'material'
p1445
S''
sS'mask'
p1446
(lp1447
sS'thickness'
p1448
F0
sS'parent_origin'
p1449
(F-15.415582525894344
F17.587460028009765
F-123.92714613532009
tp1450
sS'parent_fast_axis'
p1451
(F-0.0016858844943861368
F0.99999857889572608
F0
tp1452
sS'gain'
p1453
F1
sS'trusted_range'
p1454
(F-400
F90000
tp1455
sS'image_size'
p1456
(I194
I185
tp1457
sS'px_mm_strategy'
p1458
g1350
(tRp1459
sS'pedestal'
p1460
F0
sS'identifier'
p1461
S''
sS'type'
p1462
S''
sS'pixel_size'
p1463
(F0.10992
F0.10992
tp1464
stbag1319
(tRp1465
(I2
(dp1466
(dp1467
S'origin'
p1468
(F-21.489359999999991
F10.1676
F0
tp1469
sS'mu'
p1470
F0
sS'fast_axis'
p1471
(F1
F0
F0
tp1472
sS'parent_slow_axis'
p1473
(F-0.00054851599749130393
F0.99999984956508892
F0
tp1474
sS'name'
p1475
S'ARRAY_D0Q0S2A0'
p1476
sS'raw_image_offset'
p1477
(I0
I0
tp1478
sS'slow_axis'
p1479
(F0
F-1
F1.2246467991473532e-16
tp1480
sS'material'
p1481
S''
sS'mask'
p1482
(lp1483
sS'thickness'
p1484
F0
sS'parent_origin'
p1485
(F-73.358556808595793
F29.006882677486516
F-123.92714613532007
tp1486
sS'parent_fast_axis'
p1487
(F0.99999984956508892
F0.00054851599749130393
F0
tp1488
sS'gain'
p1489
F1
sS'trusted_range'
p1490
(F-400
F90000
tp1491
sS'image_size'
p1492
(I194
I185
tp1493
sS'px_mm_strategy'
p1494
g1350
(tRp1495
sS'pedestal'
p1496
F0
sS'identifier'
p1497
S''
sS'type'
p1498
S''
sS'pixel_size'
p1499
(F0.10992
F0.10992
tp1500
stbag1319
(tRp1501
(I2
(dp1502
(dp1503
S'origin'
p1504
(F0.16488000000000191
F10.1676
F0
tp1505
sS'mu'
p1506
F0
sS'fast_axis'
p1507
(F1
F0
F0
tp1508
sS'parent_slow_axis'
p1509
(F-0.00054851599749130393
F0.99999984956508892
F0
tp1510
sS'name'
p1511
S'ARRAY_D0Q0S2A1'
p1512
sS'raw_image_offset'
p1513
(I0
I0
tp1514
sS'slow_axis'
p1515
(F0
F-1
F1.2246467991473532e-16
tp1516
sS'material'
p1517
S''
sS'mask'
p1518
(lp1519
sS'thickness'
p1520
F0
sS'parent_origin'
p1521
(F-73.358556808595793
F29.006882677486516
F-123.92714613532007
tp1522
sS'parent_fast_axis'
p1523
(F0.99999984956508892
F0.00054851599749130393
F0
tp1524
sS'gain'
p1525
F1
sS'trusted_range'
p1526
(F-400
F90000
tp1527
sS'image_size'
p1528
(I194
I185
tp1529
sS'px_mm_strategy'
p1530
g1350
(tRp1531
sS'pedestal'
p1532
F0
sS'identifier'
p1533
S''
sS'type'
p1534
S''
sS'pixel_size'
p1535
(F0.10992
F0.10992
tp1536
stbag1319
(tRp1537
(I2
(dp1538
(dp1539
S'origin'
p1540
(F-21.489360000000005
F10.1676
F0
tp1541
sS'mu'
p1542
F0
sS'fast_axis'
p1543
(F1
F0
F0
tp1544
sS'parent_slow_axis'
p1545
(F-0.00099473139018456521
F0.99999950525460846
F0
tp1546
sS'name'
p1547
S'ARRAY_D0Q0S3A0'
p1548
sS'raw_image_offset'
p1549
(I0
I0
tp1550
sS'slow_axis'
p1551
(F0
F-1
F1.2246467991473532e-16
tp1552
sS'material'
p1553
S''
sS'mask'
p1554
(lp1555
sS'thickness'
p1556
F0
sS'parent_origin'
p1557
(F-73.311157563027365
F6.3773437368155648
F-123.92714613532002
tp1558
sS'parent_fast_axis'
p1559
(F0.99999950525460846
F0.00099473139018456521
F0
tp1560
sS'gain'
p1561
F1
sS'trusted_range'
p1562
(F-400
F90000
tp1563
sS'image_size'
p1564
(I194
I185
tp1565
sS'px_mm_strategy'
p1566
g1350
(tRp1567
sS'pedestal'
p1568
F0
sS'identifier'
p1569
S''
sS'type'
p1570
S''
sS'pixel_size'
p1571
(F0.10992
F0.10992
tp1572
stbag1319
(tRp1573
(I2
(dp1574
(dp1575
S'origin'
p1576
(F0.16488000000000191
F10.1676
F0
tp1577
sS'mu'
p1578
F0
sS'fast_axis'
p1579
(F1
F0
F0
tp1580
sS'parent_slow_axis'
p1581
(F-0.00099473139018456521
F0.99999950525460846
F0
tp1582
sS'name'
p1583
S'ARRAY_D0Q0S3A1'
p1584
sS'raw_image_offset'
p1585
(I0
I0
tp1586
sS'slow_axis'
p1587
(F0
F-1
F1.2246467991473532e-16
tp1588
sS'material'
p1589
S''
sS'mask'
p1590
(lp1591
sS'thickness'
p1592
F0
sS'parent_origin'
p1593
(F-73.311157563027365
F6.3773437368155648
F-123.92714613532002
tp1594
sS'parent_fast_axis'
p1595
(F0.99999950525460846
F0.00099473139018456521
F0
tp1596
sS'gain'
p1597
F1
sS'trusted_range'
p1598
(F-400
F90000
tp1599
sS'image_size'
p1600
(I194
I185
tp1601
sS'px_mm_strategy'
p1602
g1350
(tRp1603
sS'pedestal'
p1604
F0
sS'identifier'
p1605
S''
sS'type'
p1606
S''
sS'pixel_size'
p1607
(F0.10992
F0.10992
tp1608
stbag1319
(tRp1609
(I2
(dp1610
(dp1611
S'origin'
p1612
(F-21.48935999999998
F10.1676
F0
tp1613
sS'mu'
p1614
F0
sS'fast_axis'
p1615
(F1
F0
F0
tp1616
sS'parent_slow_axis'
p1617
(F0.99999872361075193
F-0.0015977411765511654
F0
tp1618
sS'name'
p1619
S'ARRAY_D0Q0S4A0'
p1620
sS'raw_image_offset'
p1621
(I0
I0
tp1622
sS'slow_axis'
p1623
(F0
F-1
F1.2246467991473532e-16
tp1624
sS'material'
p1625
S''
sS'mask'
p1626
(lp1627
sS'thickness'
p1628
F0
sS'parent_origin'
p1629
(F-61.88529642049869
F64.533629148362877
F-123.92714613532017
tp1630
sS'parent_fast_axis'
p1631
(F-0.0015977411765511654
F-0.99999872361075193
F0
tp1632
sS'gain'
p1633
F1
sS'trusted_range'
p1634
(F-400
F90000
tp1635
sS'image_size'
p1636
(I194
I185
tp1637
sS'px_mm_strategy'
p1638
g1350
(tRp1639
sS'pedestal'
p1640
F0
sS'identifier'
p1641
S''
sS'type'
p1642
S''
sS'pixel_size'
p1643
(F0.10992
F0.10992
tp1644
stbag1319
(tRp1645
(I2
(dp1646
(dp1647
S'origin'
p1648
(F0.16488000000000724
F10.1676
F0
tp1649
sS'mu'
p1650
F0
sS'fast_axis'
p1651
(F1
F0
F0
tp1652
sS'parent_slow_axis'
p1653
(F0.99999872361075193
F-0.0015977411765511654
F0
tp1654
sS'name'
p1655
S'ARRAY_D0Q0S4A1'
p1656
sS'raw_image_offset'
p1657
(I0
I0
tp1658
sS'slow_axis'
p1659
(F0
F-1
F1.2246467991473532e-16
tp1660
sS'material'
p1661
S''
sS'mask'
p1662
(lp1663
sS'thickness'
p1664
F0
sS'parent_origin'
p1665
(F-61.88529642049869
F64.533629148362877
F-123.92714613532017
tp1666
sS'parent_fast_axis'
p1667
(F-0.0015977411765511654
F-0.99999872361075193
F0
tp1668
sS'gain'
p1669
F1
sS'trusted_range'
p1670
(F-400
F90000
tp1671
sS'image_size'
p1672
(I194
I185
tp1673
sS'px_mm_strategy'
p1674
g1350
(tRp1675
sS'pedestal'
p1676
F0
sS'identifier'
p1677
S''
sS'type'
p1678
S''
sS'pixel_size'
p1679
(F0.10992
F0.10992
tp1680
stbag1319
(tRp1681
(I2
(dp1682
(dp1683
S'origin'
p1684
(F-21.489360000000008
F10.1676
F0
tp1685
sS'mu'
p1686
F0
sS'fast_axis'
p1687
(F1
F0
F0
tp1688
sS'parent_slow_axis'
p1689
(F0.99998285746283355
F-0.0058553206971558459
F0
tp1690
sS'name'
p1691
S'ARRAY_D0Q0S5A0'
p1692
sS'raw_image_offset'
p1693
(I0
I0
tp1694
sS'slow_axis'
p1695
(F0
F-1
F1.2246467991473532e-16
tp1696
sS'material'
p1697
S''
sS'mask'
p1698
(lp1699
sS'thickness'
p1700
F0
sS'parent_origin'
p1701
(F-84.720013655505582
F64.641417966035846
F-123.92714613532017
tp1702
sS'parent_fast_axis'
p1703
(F-0.0058553206971558459
F-0.99998285746283355
F0
tp1704
sS'gain'
p1705
F1
sS'trusted_range'
p1706
(F-400
F90000
tp1707
sS'image_size'
p1708
(I194
I185
tp1709
sS'px_mm_strategy'
p1710
g1350
(tRp1711
sS'pedestal'
p1712
F0
sS'identifier'
p1713
S''
sS'type'
p1714
S''
sS'pixel_size'
p1715
(F0.10992
F0.10992
tp1716
stbag1319
(tRp1717
(I2
(dp1718
(dp1719
S'origin'
p1720
(F0.16487999999999303
F10.1676
F0
tp1721
sS'mu'
p1722
F0
sS'fast_axis'
p1723
(F1
F0
F0
tp1724
sS'parent_slow_axis'
p1725
(F0.99998285746283355
F-0.0058553206971558459
F0
tp1726
sS'name'
p1727
S'ARRAY_D0Q0S5A1'
p1728
sS'raw_image_offset'
p1729
(I0
I0
tp1730
sS'slow_axis'
p1731
(F0
F-1
F1.2246467991473532e-16
tp1732
sS'material'
p1733
S''
sS'mask'
p1734
(lp1735
sS'thickness'
p1736
F0
sS'parent_origin'
p1737
(F-84.720013655505582
F64.641417966035846
F-123.92714613532017
tp1738
sS'parent_fast_axis'
p1739
(F-0.0058553206971558459
F-0.99998285746283355
F0
tp1740
sS'gain'
p1741
F1
sS'trusted_range'
p1742
(F-400
F90000
tp1743
sS'image_size'
p1744
(I194
I185
tp1745
sS'px_mm_strategy'
p1746
g1350
(tRp1747
sS'pedestal'
p1748
F0
sS'identifier'
p1749
S''
sS'type'
p1750
S''
sS'pixel_size'
p1751
(F0.10992
F0.10992
tp1752
stbag1319
(tRp1753
(I2
(dp1754
(dp1755
S'origin'
p1756
(F-21.489360000000001
F10.1676
F0
tp1757
sS'mu'
p1758
F0
sS'fast_axis'
p1759
(F1
F0
F0
tp1760
sS'parent_slow_axis'
p1761
(F0.0038663345675761323
F0.99999252570057329
F0
tp1762
sS'name'
p1763
S'ARRAY_D0Q0S6A0'
p1764
sS'raw_image_offset'
p1765
(I0
I0
tp1766
sS'slow_axis'
p1767
(F0
F-1
F1.2246467991473532e-16
tp1768
sS'material'
p1769
S''
sS'mask'
p1770
(lp1771
sS'thickness'
p1772
F0
sS'parent_origin'
p1773
(F-26.517049212924846
F73.744733616583829
F-123.92714613532017
tp1774
sS'parent_fast_axis'
p1775
(F0.99999252570057329
F-0.0038663345675761323
F0
tp1776
sS'gain'
p1777
F1
sS'trusted_range'
p1778
(F-400
F90000
tp1779
sS'image_size'
p1780
(I194
I185
tp1781
sS'px_mm_strategy'
p1782
g1350
(tRp1783
sS'pedestal'
p1784
F0
sS'identifier'
p1785
S''
sS'type'
p1786
S''
sS'pixel_size'
p1787
(F0.10992
F0.10992
tp1788
stbag1319
(tRp1789
(I2
(dp1790
(dp1791
S'origin'
p1792
(F0.16488000000000014
F10.1676
F0
tp1793
sS'mu'
p1794
F0
sS'fast_axis'
p1795
(F1
F0
F0
tp1796
sS'parent_slow_axis'
p1797
(F0.0038663345675761323
F0.99999252570057329
F0
tp1798
sS'name'
p1799
S'ARRAY_D0Q0S6A1'
p1800
sS'raw_image_offset'
p1801
(I0
I0
tp1802
sS'slow_axis'
p1803
(F0
F-1
F1.2246467991473532e-16
tp1804
sS'material'
p1805
S''
sS'mask'
p1806
(lp1807
sS'thickness'
p1808
F0
sS'parent_origin'
p1809
(F-26.517049212924846
F73.744733616583829
F-123.92714613532017
tp1810
sS'parent_fast_axis'
p1811
(F0.99999252570057329
F-0.0038663345675761323
F0
tp1812
sS'gain'
p1813
F1
sS'trusted_range'
p1814
(F-400
F90000
tp1815
sS'image_size'
p1816
(I194
I185
tp1817
sS'px_mm_strategy'
p1818
g1350
(tRp1819
sS'pedestal'
p1820
F0
sS'identifier'
p1821
S''
sS'type'
p1822
S''
sS'pixel_size'
p1823
(F0.10992
F0.10992
tp1824
stbag1319
(tRp1825
(I2
(dp1826
(dp1827
S'origin'
p1828
(F-21.489360000000005
F10.1676
F0
tp1829
sS'mu'
p1830
F0
sS'fast_axis'
p1831
(F1
F0
F0
tp1832
sS'parent_slow_axis'
p1833
(F0.0012887139433810173
F0.99999916960784141
F0
tp1834
sS'name'
p1835
S'ARRAY_D0Q0S7A0'
p1836
sS'raw_image_offset'
p1837
(I0
I0
tp1838
sS'slow_axis'
p1839
(F0
F-1
F1.2246467991473532e-16
tp1840
sS'material'
p1841
S''
sS'mask'
p1842
(lp1843
sS'thickness'
p1844
F0
sS'parent_origin'
p1845
(F-26.541535645482298
F50.764368542757133
F-123.92714613532014
tp1846
sS'parent_fast_axis'
p1847
(F0.99999916960784141
F-0.0012887139433810173
F0
tp1848
sS'gain'
p1849
F1
sS'trusted_range'
p1850
(F-400
F90000
tp1851
sS'image_size'
p1852
(I194
I185
tp1853
sS'px_mm_strategy'
p1854
g1350
(tRp1855
sS'pedestal'
p1856
F0
sS'identifier'
p1857
S''
sS'type'
p1858
S''
sS'pixel_size'
p1859
(F0.10992
F0.10992
tp1860
stbag1319
(tRp1861
(I2
(dp1862
(dp1863
S'origin'
p1864
(F0.16488000000000014
F10.1676
F0
tp1865
sS'mu'
p1866
F0
sS'fast_axis'
p1867
(F1
F0
F0
tp1868
sS'parent_slow_axis'
p1869
(F0.0012887139433810173
F0.99999916960784141
F0
tp1870
sS'name'
p1871
S'ARRAY_D0Q0S7A1'
p1872
sS'raw_image_offset'
p1873
(I0
I0
tp1874
sS'slow_axis'
p1875
(F0
F-1
F1.2246467991473532e-16
tp1876
sS'material'
p1877
S''
sS'mask'
p1878
(lp1879
sS'thickness'
p1880
F0
sS'parent_origin'
p1881
(F-26.541535645482298
F50.764368542757133
F-123.92714613532014
tp1882
sS'parent_fast_axis'
p1883
(F0.99999916960784141
F-0.0012887139433810173
F0
tp1884
sS'gain'
p1885
F1
sS'trusted_range'
p1886
(F-400
F90000
tp1887
sS'image_size'
p1888
(I194
I185
tp1889
sS'px_mm_strategy'
p1890
g1350
(tRp1891
sS'pedestal'
p1892
F0
sS'identifier'
p1893
S''
sS'type'
p1894
S''
sS'pixel_size'
p1895
(F0.10992
F0.10992
tp1896
stbag1319
(tRp1897
(I2
(dp1898
(dp1899
S'origin'
p1900
(F-21.489359999999998
F10.1676
F0
tp1901
sS'mu'
p1902
F0
sS'fast_axis'
p1903
(F1
F0
F0
tp1904
sS'parent_slow_axis'
p1905
(F0.0050734854415352831
F0.99998712978991611
F0
tp1906
sS'name'
p1907
S'ARRAY_D0Q1S0A0'
p1908
sS'raw_image_offset'
p1909
(I0
I0
tp1910
sS'slow_axis'
p1911
(F0
F-1
F1.2246467991473532e-16
tp1912
sS'material'
p1913
S''
sS'mask'
p1914
(lp1915
sS'thickness'
p1916
F0
sS'parent_origin'
p1917
(F19.11916073401007
F39.123092825116899
F-123.92714613532065
tp1918
sS'parent_fast_axis'
p1919
(F0.99998712978991611
F-0.0050734854415352831
F0
tp1920
sS'gain'
p1921
F1
sS'trusted_range'
p1922
(F-400
F90000
tp1923
sS'image_size'
p1924
(I194
I185
tp1925
sS'px_mm_strategy'
p1926
g1350
(tRp1927
sS'pedestal'
p1928
F0
sS'identifier'
p1929
S''
sS'type'
p1930
S''
sS'pixel_size'
p1931
(F0.10992
F0.10992
tp1932
stbag1319
(tRp1933
(I2
(dp1934
(dp1935
S'origin'
p1936
(F0.16487999999999303
F10.1676
F0
tp1937
sS'mu'
p1938
F0
sS'fast_axis'
p1939
(F1
F0
F0
tp1940
sS'parent_slow_axis'
p1941
(F0.0050734854415352831
F0.99998712978991611
F0
tp1942
sS'name'
p1943
S'ARRAY_D0Q1S0A1'
p1944
sS'raw_image_offset'
p1945
(I0
I0
tp1946
sS'slow_axis'
p1947
(F0
F-1
F1.2246467991473532e-16
tp1948
sS'material'
p1949
S''
sS'mask'
p1950
(lp1951
sS'thickness'
p1952
F0
sS'parent_origin'
p1953
(F19.11916073401007
F39.123092825116899
F-123.92714613532065
tp1954
sS'parent_fast_axis'
p1955
(F0.99998712978991611
F-0.0050734854415352831
F0
tp1956
sS'gain'
p1957
F1
sS'trusted_range'
p1958
(F-400
F90000
tp1959
sS'image_size'
p1960
(I194
I185
tp1961
sS'px_mm_strategy'
p1962
g1350
(tRp1963
sS'pedestal'
p1964
F0
sS'identifier'
p1965
S''
sS'type'
p1966
S''
sS'pixel_size'
p1967
(F0.10992
F0.10992
tp1968
stbag1319
(tRp1969
(I2
(dp1970
(dp1971
S'origin'
p1972
(F-21.489359999999998
F10.1676
F0
tp1973
sS'mu'
p1974
F0
sS'fast_axis'
p1975
(F1
F0
F0
tp1976
sS'parent_slow_axis'
p1977
(F0.0009098710095977805
F0.99999958606728745
F0
tp1978
sS'name'
p1979
S'ARRAY_D0Q1S1A0'
p1980
sS'raw_image_offset'
p1981
(I0
I0
tp1982
sS'slow_axis'
p1983
(F0
F-1
F1.2246467991473532e-16
tp1984
sS'material'
p1985
S''
sS'mask'
p1986
(lp1987
sS'thickness'
p1988
F0
sS'parent_origin'
p1989
(F19.039033243130213
F16.179976333682674
F-123.92714613532031
tp1990
sS'parent_fast_axis'
p1991
(F0.99999958606728745
F-0.0009098710095977805
F0
tp1992
sS'gain'
p1993
F1
sS'trusted_range'
p1994
(F-400
F90000
tp1995
sS'image_size'
p1996
(I194
I185
tp1997
sS'px_mm_strategy'
p1998
g1350
(tRp1999
sS'pedestal'
p2000
F0
sS'identifier'
p2001
S''
sS'type'
p2002
S''
sS'pixel_size'
p2003
(F0.10992
F0.10992
tp2004
stbag1319
(tRp2005
(I2
(dp2006
(dp2007
S'origin'
p2008
(F0.16487999999999658
F10.1676
F0
tp2009
sS'mu'
p2010
F0
sS'fast_axis'
p2011
(F1
F0
F0
tp2012
sS'parent_slow_axis'
p2013
(F0.0009098710095977805
F0.99999958606728745
F0
tp2014
sS'name'
p2015
S'ARRAY_D0Q1S1A1'
p2016
sS'raw_image_offset'
p2017
(I0
I0
tp2018
sS'slow_axis'
p2019
(F0
F-1
F1.2246467991473532e-16
tp2020
sS'material'
p2021
S''
sS'mask'
p2022
(lp2023
sS'thickness'
p2024
F0
sS'parent_origin'
p2025
(F19.039033243130213
F16.179976333682674
F-123.92714613532031
tp2026
sS'parent_fast_axis'
p2027
(F0.99999958606728745
F-0.0009098710095977805
F0
tp2028
sS'gain'
p2029
F1
sS'trusted_range'
p2030
(F-400
F90000
tp2031
sS'image_size'
p2032
(I194
I185
tp2033
sS'px_mm_strategy'
p2034
g1350
(tRp2035
sS'pedestal'
p2036
F0
sS'identifier'
p2037
S''
sS'type'
p2038
S''
sS'pixel_size'
p2039
(F0.10992
F0.10992
tp2040
stbag1319
(tRp2041
(I2
(dp2042
(dp2043
S'origin'
p2044
(F-21.489360000000012
F10.1676
F0
tp2045
sS'mu'
p2046
F0
sS'fast_axis'
p2047
(F1
F0
F0
tp2048
sS'parent_slow_axis'
p2049
(F0.9999996628249066
F-0.00082118820821876844
F0
tp2050
sS'name'
p2051
S'ARRAY_D0Q1S2A0'
p2052
sS'raw_image_offset'
p2053
(I0
I0
tp2054
sS'slow_axis'
p2055
(F0
F-1
F1.2246467991473532e-16
tp2056
sS'material'
p2057
S''
sS'mask'
p2058
(lp2059
sS'thickness'
p2060
F0
sS'parent_origin'
p2061
(F30.701313989897976
F74.211325058949797
F-123.9271461353205
tp2062
sS'parent_fast_axis'
p2063
(F-0.00082118820821876844
F-0.9999996628249066
F0
tp2064
sS'gain'
p2065
F1
sS'trusted_range'
p2066
(F-400
F90000
tp2067
sS'image_size'
p2068
(I194
I185
tp2069
sS'px_mm_strategy'
p2070
g1350
(tRp2071
sS'pedestal'
p2072
F0
sS'identifier'
p2073
S''
sS'type'
p2074
S''
sS'pixel_size'
p2075
(F0.10992
F0.10992
tp2076
stbag1319
(tRp2077
(I2
(dp2078
(dp2079
S'origin'
p2080
(F0.16487999999999658
F10.1676
F0
tp2081
sS'mu'
p2082
F0
sS'fast_axis'
p2083
(F1
F0
F0
tp2084
sS'parent_slow_axis'
p2085
(F0.9999996628249066
F-0.00082118820821876844
F0
tp2086
sS'name'
p2087
S'ARRAY_D0Q1S2A1'
p2088
sS'raw_image_offset'
p2089
(I0
I0
tp2090
sS'slow_axis'
p2091
(F0
F-1
F1.2246467991473532e-16
tp2092
sS'material'
p2093
S''
sS'mask'
p2094
(lp2095
sS'thickness'
p2096
F0
sS'parent_origin'
p2097
(F30.701313989897976
F74.211325058949797
F-123.9271461353205
tp2098
sS'parent_fast_axis'
p2099
(F-0.00082118820821876844
F-0.9999996628249066
F0
tp2100
sS'gain'
p2101
F1
sS'trusted_range'
p2102
(F-400
F90000
tp2103
sS'image_size'
p2104
(I194
I185
tp2105
sS'px_mm_strategy'
p2106
g1350
(tRp2107
sS'pedestal'
p2108
F0
sS'identifier'
p2109
S''
sS'type'
p2110
S''
sS'pixel_size'
p2111
(F0.10992
F0.10992
tp2112
stbag1319
(tRp2113
(I2
(dp2114
(dp2115
S'origin'
p2116
(F-21.489360000000026
F10.1676
F0
tp2117
sS'mu'
p2118
F0
sS'fast_axis'
p2119
(F1
F0
F0
tp2120
sS'parent_slow_axis'
p2121
(F0.99999970818009021
F0.00076396317604928072
F0
tp2122
sS'name'
p2123
S'ARRAY_D0Q1S3A0'
p2124
sS'raw_image_offset'
p2125
(I0
I0
tp2126
sS'slow_axis'
p2127
(F0
F-1
F1.2246467991473532e-16
tp2128
sS'material'
p2129
S''
sS'mask'
p2130
(lp2131
sS'thickness'
p2132
F0
sS'parent_origin'
p2133
(F7.8704071360513268
F74.152541528767529
F-123.92714613532061
tp2134
sS'parent_fast_axis'
p2135
(F0.00076396317604928072
F-0.99999970818009021
F0
tp2136
sS'gain'
p2137
F1
sS'trusted_range'
p2138
(F-400
F90000
tp2139
sS'image_size'
p2140
(I194
I185
tp2141
sS'px_mm_strategy'
p2142
g1350
(tRp2143
sS'pedestal'
p2144
F0
sS'identifier'
p2145
S''
sS'type'
p2146
S''
sS'pixel_size'
p2147
(F0.10992
F0.10992
tp2148
stbag1319
(tRp2149
(I2
(dp2150
(dp2151
S'origin'
p2152
(F0.16487999999999481
F10.1676
F0
tp2153
sS'mu'
p2154
F0
sS'fast_axis'
p2155
(F1
F0
F0
tp2156
sS'parent_slow_axis'
p2157
(F0.99999970818009021
F0.00076396317604928072
F0
tp2158
sS'name'
p2159
S'ARRAY_D0Q1S3A1'
p2160
sS'raw_image_offset'
p2161
(I0
I0
tp2162
sS'slow_axis'
p2163
(F0
F-1
F1.2246467991473532e-16
tp2164
sS'material'
p2165
S''
sS'mask'
p2166
(lp2167
sS'thickness'
p2168
F0
sS'parent_origin'
p2169
(F7.8704071360513268
F74.152541528767529
F-123.92714613532061
tp2170
sS'parent_fast_axis'
p2171
(F0.00076396317604928072
F-0.99999970818009021
F0
tp2172
sS'gain'
p2173
F1
sS'trusted_range'
p2174
(F-400
F90000
tp2175
sS'image_size'
p2176
(I194
I185
tp2177
sS'px_mm_strategy'
p2178
g1350
(tRp2179
sS'pedestal'
p2180
F0
sS'identifier'
p2181
S''
sS'type'
p2182
S''
sS'pixel_size'
p2183
(F0.10992
F0.10992
tp2184
stbag1319
(tRp2185
(I2
(dp2186
(dp2187
S'origin'
p2188
(F-21.489359999999998
F10.1676
F0
tp2189
sS'mu'
p2190
F0
sS'fast_axis'
p2191
(F1
F0
F0
tp2192
sS'parent_slow_axis'
p2193
(F-0.0023426793102679045
F-0.99999725592305977
F0
tp2194
sS'name'
p2195
S'ARRAY_D0Q1S4A0'
p2196
sS'raw_image_offset'
p2197
(I0
I0
tp2198
sS'slow_axis'
p2199
(F0
F-1
F1.2246467991473532e-16
tp2200
sS'material'
p2201
S''
sS'mask'
p2202
(lp2203
sS'thickness'
p2204
F0
sS'parent_origin'
p2205
(F65.821317366127673
F62.376494768052162
F-123.92714613532034
tp2206
sS'parent_fast_axis'
p2207
(F-0.99999725592305977
F0.0023426793102679045
F0
tp2208
sS'gain'
p2209
F1
sS'trusted_range'
p2210
(F-400
F90000
tp2211
sS'image_size'
p2212
(I194
I185
tp2213
sS'px_mm_strategy'
p2214
g1350
(tRp2215
sS'pedestal'
p2216
F0
sS'identifier'
p2217
S''
sS'type'
p2218
S''
sS'pixel_size'
p2219
(F0.10992
F0.10992
tp2220
stbag1319
(tRp2221
(I2
(dp2222
(dp2223
S'origin'
p2224
(F0.16487999999999126
F10.1676
F0
tp2225
sS'mu'
p2226
F0
sS'fast_axis'
p2227
(F1
F0
F0
tp2228
sS'parent_slow_axis'
p2229
(F-0.0023426793102679045
F-0.99999725592305977
F0
tp2230
sS'name'
p2231
S'ARRAY_D0Q1S4A1'
p2232
sS'raw_image_offset'
p2233
(I0
I0
tp2234
sS'slow_axis'
p2235
(F0
F-1
F1.2246467991473532e-16
tp2236
sS'material'
p2237
S''
sS'mask'
p2238
(lp2239
sS'thickness'
p2240
F0
sS'parent_origin'
p2241
(F65.821317366127673
F62.376494768052162
F-123.92714613532034
tp2242
sS'parent_fast_axis'
p2243
(F-0.99999725592305977
F0.0023426793102679045
F0
tp2244
sS'gain'
p2245
F1
sS'trusted_range'
p2246
(F-400
F90000
tp2247
sS'image_size'
p2248
(I194
I185
tp2249
sS'px_mm_strategy'
p2250
g1350
(tRp2251
sS'pedestal'
p2252
F0
sS'identifier'
p2253
S''
sS'type'
p2254
S''
sS'pixel_size'
p2255
(F0.10992
F0.10992
tp2256
stbag1319
(tRp2257
(I2
(dp2258
(dp2259
S'origin'
p2260
(F-21.489359999999994
F10.1676
F0
tp2261
sS'mu'
p2262
F0
sS'fast_axis'
p2263
(F1
F0
F0
tp2264
sS'parent_slow_axis'
p2265
(F-0.0057715420153421028
F-0.99998334451268001
F0
tp2266
sS'name'
p2267
S'ARRAY_D0Q1S5A0'
p2268
sS'raw_image_offset'
p2269
(I0
I0
tp2270
sS'slow_axis'
p2271
(F0
F-1
F1.2246467991473532e-16
tp2272
sS'material'
p2273
S''
sS'mask'
p2274
(lp2275
sS'thickness'
p2276
F0
sS'parent_origin'
p2277
(F65.822292555233233
F84.806941017370747
F-123.92714613532017
tp2278
sS'parent_fast_axis'
p2279
(F-0.99998334451268001
F0.0057715420153421028
F0
tp2280
sS'gain'
p2281
F1
sS'trusted_range'
p2282
(F-400
F90000
tp2283
sS'image_size'
p2284
(I194
I185
tp2285
sS'px_mm_strategy'
p2286
g1350
(tRp2287
sS'pedestal'
p2288
F0
sS'identifier'
p2289
S''
sS'type'
p2290
S''
sS'pixel_size'
p2291
(F0.10992
F0.10992
tp2292
stbag1319
(tRp2293
(I2
(dp2294
(dp2295
S'origin'
p2296
(F0.16488000000001435
F10.1676
F0
tp2297
sS'mu'
p2298
F0
sS'fast_axis'
p2299
(F1
F0
F0
tp2300
sS'parent_slow_axis'
p2301
(F-0.0057715420153421028
F-0.99998334451268001
F0
tp2302
sS'name'
p2303
S'ARRAY_D0Q1S5A1'
p2304
sS'raw_image_offset'
p2305
(I0
I0
tp2306
sS'slow_axis'
p2307
(F0
F-1
F1.2246467991473532e-16
tp2308
sS'material'
p2309
S''
sS'mask'
p2310
(lp2311
sS'thickness'
p2312
F0
sS'parent_origin'
p2313
(F65.822292555233233
F84.806941017370747
F-123.92714613532017
tp2314
sS'parent_fast_axis'
p2315
(F-0.99998334451268001
F0.0057715420153421028
F0
tp2316
sS'gain'
p2317
F1
sS'trusted_range'
p2318
(F-400
F90000
tp2319
sS'image_size'
p2320
(I194
I185
tp2321
sS'px_mm_strategy'
p2322
g1350
(tRp2323
sS'pedestal'
p2324
F0
sS'identifier'
p2325
S''
sS'type'
p2326
S''
sS'pixel_size'
p2327
(F0.10992
F0.10992
tp2328
stbag1319
(tRp2329
(I2
(dp2330
(dp2331
S'origin'
p2332
(F-21.489359999999998
F10.1676
F0
tp2333
sS'mu'
p2334
F0
sS'fast_axis'
p2335
(F1
F0
F0
tp2336
sS'parent_slow_axis'
p2337
(F0.99998901386413375
F0.0046874461103548369
F0
tp2338
sS'name'
p2339
S'ARRAY_D0Q1S6A0'
p2340
sS'raw_image_offset'
p2341
(I0
I0
tp2342
sS'slow_axis'
p2343
(F0
F-1
F1.2246467991473532e-16
tp2344
sS'material'
p2345
S''
sS'mask'
p2346
(lp2347
sS'thickness'
p2348
F0
sS'parent_origin'
p2349
(F74.603558701616791
F26.788263777344199
F-123.9271461353204
tp2350
sS'parent_fast_axis'
p2351
(F0.0046874461103548369
F-0.99998901386413375
F0
tp2352
sS'gain'
p2353
F1
sS'trusted_range'
p2354
(F-400
F90000
tp2355
sS'image_size'
p2356
(I194
I185
tp2357
sS'px_mm_strategy'
p2358
g1350
(tRp2359
sS'pedestal'
p2360
F0
sS'identifier'
p2361
S''
sS'type'
p2362
S''
sS'pixel_size'
p2363
(F0.10992
F0.10992
tp2364
stbag1319
(tRp2365
(I2
(dp2366
(dp2367
S'origin'
p2368
(F0.16488000000000014
F10.1676
F0
tp2369
sS'mu'
p2370
F0
sS'fast_axis'
p2371
(F1
F0
F0
tp2372
sS'parent_slow_axis'
p2373
(F0.99998901386413375
F0.0046874461103548369
F0
tp2374
sS'name'
p2375
S'ARRAY_D0Q1S6A1'
p2376
sS'raw_image_offset'
p2377
(I0
I0
tp2378
sS'slow_axis'
p2379
(F0
F-1
F1.2246467991473532e-16
tp2380
sS'material'
p2381
S''
sS'mask'
p2382
(lp2383
sS'thickness'
p2384
F0
sS'parent_origin'
p2385
(F74.603558701616791
F26.788263777344199
F-123.9271461353204
tp2386
sS'parent_fast_axis'
p2387
(F0.0046874461103548369
F-0.99998901386413375
F0
tp2388
sS'gain'
p2389
F1
sS'trusted_range'
p2390
(F-400
F90000
tp2391
sS'image_size'
p2392
(I194
I185
tp2393
sS'px_mm_strategy'
p2394
g1350
(tRp2395
sS'pedestal'
p2396
F0
sS'identifier'
p2397
S''
sS'type'
p2398
S''
sS'pixel_size'
p2399
(F0.10992
F0.10992
tp2400
stbag1319
(tRp2401
(I2
(dp2402
(dp2403
S'origin'
p2404
(F-21.489360000000005
F10.1676
F0
tp2405
sS'mu'
p2406
F0
sS'fast_axis'
p2407
(F1
F0
F0
tp2408
sS'parent_slow_axis'
p2409
(F0.99999999001271811
F0.00014133139662727431
F0
tp2410
sS'name'
p2411
S'ARRAY_D0Q1S7A0'
p2412
sS'raw_image_offset'
p2413
(I0
I0
tp2414
sS'slow_axis'
p2415
(F0
F-1
F1.2246467991473532e-16
tp2416
sS'material'
p2417
S''
sS'mask'
p2418
(lp2419
sS'thickness'
p2420
F0
sS'parent_origin'
p2421
(F51.964985962734893
F26.750162304290043
F-123.92714613532048
tp2422
sS'parent_fast_axis'
p2423
(F0.00014133139662727431
F-0.99999999001271811
F0
tp2424
sS'gain'
p2425
F1
sS'trusted_range'
p2426
(F-400
F90000
tp2427
sS'image_size'
p2428
(I194
I185
tp2429
sS'px_mm_strategy'
p2430
g1350
(tRp2431
sS'pedestal'
p2432
F0
sS'identifier'
p2433
S''
sS'type'
p2434
S''
sS'pixel_size'
p2435
(F0.10992
F0.10992
tp2436
stbag1319
(tRp2437
(I2
(dp2438
(dp2439
S'origin'
p2440
(F0.16488000000000191
F10.1676
F0
tp2441
sS'mu'
p2442
F0
sS'fast_axis'
p2443
(F1
F0
F0
tp2444
sS'parent_slow_axis'
p2445
(F0.99999999001271811
F0.00014133139662727431
F0
tp2446
sS'name'
p2447
S'ARRAY_D0Q1S7A1'
p2448
sS'raw_image_offset'
p2449
(I0
I0
tp2450
sS'slow_axis'
p2451
(F0
F-1
F1.2246467991473532e-16
tp2452
sS'material'
p2453
S''
sS'mask'
p2454
(lp2455
sS'thickness'
p2456
F0
sS'parent_origin'
p2457
(F51.964985962734893
F26.750162304290043
F-123.92714613532048
tp2458
sS'parent_fast_axis'
p2459
(F0.00014133139662727431
F-0.99999999001271811
F0
tp2460
sS'gain'
p2461
F1
sS'trusted_range'
p2462
(F-400
F90000
tp2463
sS'image_size'
p2464
(I194
I185
tp2465
sS'px_mm_strategy'
p2466
g1350
(tRp2467
sS'pedestal'
p2468
F0
sS'identifier'
p2469
S''
sS'type'
p2470
S''
sS'pixel_size'
p2471
(F0.10992
F0.10992
tp2472
stbag1319
(tRp2473
(I2
(dp2474
(dp2475
S'origin'
p2476
(F-21.489360000000001
F10.1676
F0
tp2477
sS'mu'
p2478
F0
sS'fast_axis'
p2479
(F1
F0
F0
tp2480
sS'parent_slow_axis'
p2481
(F0.99999509011819321
F0.0031336463595314007
F0
tp2482
sS'name'
p2483
S'ARRAY_D0Q2S0A0'
p2484
sS'raw_image_offset'
p2485
(I0
I0
tp2486
sS'slow_axis'
p2487
(F0
F-1
F1.2246467991473532e-16
tp2488
sS'material'
p2489
S''
sS'mask'
p2490
(lp2491
sS'thickness'
p2492
F0
sS'parent_origin'
p2493
(F39.332578048136128
F-17.926657342767633
F-123.92714613532026
tp2494
sS'parent_fast_axis'
p2495
(F0.0031336463595314007
F-0.99999509011819321
F0
tp2496
sS'gain'
p2497
F1
sS'trusted_range'
p2498
(F-400
F90000
tp2499
sS'image_size'
p2500
(I194
I185
tp2501
sS'px_mm_strategy'
p2502
g1350
(tRp2503
sS'pedestal'
p2504
F0
sS'identifier'
p2505
S''
sS'type'
p2506
S''
sS'pixel_size'
p2507
(F0.10992
F0.10992
tp2508
stbag1319
(tRp2509
(I2
(dp2510
(dp2511
S'origin'
p2512
(F0.16487999999999836
F10.1676
F0
tp2513
sS'mu'
p2514
F0
sS'fast_axis'
p2515
(F1
F0
F0
tp2516
sS'parent_slow_axis'
p2517
(F0.99999509011819321
F0.0031336463595314007
F0
tp2518
sS'name'
p2519
S'ARRAY_D0Q2S0A1'
p2520
sS'raw_image_offset'
p2521
(I0
I0
tp2522
sS'slow_axis'
p2523
(F0
F-1
F1.2246467991473532e-16
tp2524
sS'material'
p2525
S''
sS'mask'
p2526
(lp2527
sS'thickness'
p2528
F0
sS'parent_origin'
p2529
(F39.332578048136128
F-17.926657342767633
F-123.92714613532026
tp2530
sS'parent_fast_axis'
p2531
(F0.0031336463595314007
F-0.99999509011819321
F0
tp2532
sS'gain'
p2533
F1
sS'trusted_range'
p2534
(F-400
F90000
tp2535
sS'image_size'
p2536
(I194
I185
tp2537
sS'px_mm_strategy'
p2538
g1350
(tRp2539
sS'pedestal'
p2540
F0
sS'identifier'
p2541
S''
sS'type'
p2542
S''
sS'pixel_size'
p2543
(F0.10992
F0.10992
tp2544
stbag1319
(tRp2545
(I2
(dp2546
(dp2547
S'origin'
p2548
(F-21.489359999999998
F10.1676
F0
tp2549
sS'mu'
p2550
F0
sS'fast_axis'
p2551
(F1
F0
F0
tp2552
sS'parent_slow_axis'
p2553
(F0.9999984252148425
F-0.0017747021820693745
F0
tp2554
sS'name'
p2555
S'ARRAY_D0Q2S1A0'
p2556
sS'raw_image_offset'
p2557
(I0
I0
tp2558
sS'slow_axis'
p2559
(F0
F-1
F1.2246467991473532e-16
tp2560
sS'material'
p2561
S''
sS'mask'
p2562
(lp2563
sS'thickness'
p2564
F0
sS'parent_origin'
p2565
(F16.485269611275942
F-17.957156907860686
F-123.92714613532026
tp2566
sS'parent_fast_axis'
p2567
(F-0.0017747021820693745
F-0.9999984252148425
F0
tp2568
sS'gain'
p2569
F1
sS'trusted_range'
p2570
(F-400
F90000
tp2571
sS'image_size'
p2572
(I194
I185
tp2573
sS'px_mm_strategy'
p2574
g1350
(tRp2575
sS'pedestal'
p2576
F0
sS'identifier'
p2577
S''
sS'type'
p2578
S''
sS'pixel_size'
p2579
(F0.10992
F0.10992
tp2580
stbag1319
(tRp2581
(I2
(dp2582
(dp2583
S'origin'
p2584
(F0.16488000000000547
F10.1676
F0
tp2585
sS'mu'
p2586
F0
sS'fast_axis'
p2587
(F1
F0
F0
tp2588
sS'parent_slow_axis'
p2589
(F0.9999984252148425
F-0.0017747021820693745
F0
tp2590
sS'name'
p2591
S'ARRAY_D0Q2S1A1'
p2592
sS'raw_image_offset'
p2593
(I0
I0
tp2594
sS'slow_axis'
p2595
(F0
F-1
F1.2246467991473532e-16
tp2596
sS'material'
p2597
S''
sS'mask'
p2598
(lp2599
sS'thickness'
p2600
F0
sS'parent_origin'
p2601
(F16.485269611275942
F-17.957156907860686
F-123.92714613532026
tp2602
sS'parent_fast_axis'
p2603
(F-0.0017747021820693745
F-0.9999984252148425
F0
tp2604
sS'gain'
p2605
F1
sS'trusted_range'
p2606
(F-400
F90000
tp2607
sS'image_size'
p2608
(I194
I185
tp2609
sS'px_mm_strategy'
p2610
g1350
(tRp2611
sS'pedestal'
p2612
F0
sS'identifier'
p2613
S''
sS'type'
p2614
S''
sS'pixel_size'
p2615
(F0.10992
F0.10992
tp2616
stbag1319
(tRp2617
(I2
(dp2618
(dp2619
S'origin'
p2620
(F-21.489360000000012
F10.1676
F0
tp2621
sS'mu'
p2622
F0
sS'fast_axis'
p2623
(F1
F0
F0
tp2624
sS'parent_slow_axis'
p2625
(F0.0014964262800291656
F-0.99999888035356754
F0
tp2626
sS'name'
p2627
S'ARRAY_D0Q2S2A0'
p2628
sS'raw_image_offset'
p2629
(I0
I0
tp2630
sS'slow_axis'
p2631
(F0
F-1
F1.2246467991473532e-16
tp2632
sS'material'
p2633
S''
sS'mask'
p2634
(lp2635
sS'thickness'
p2636
F0
sS'parent_origin'
p2637
(F74.277168015568435
F-29.329213417479465
F-123.92714613532021
tp2638
sS'parent_fast_axis'
p2639
(F-0.99999888035356754
F-0.0014964262800291656
F0
tp2640
sS'gain'
p2641
F1
sS'trusted_range'
p2642
(F-400
F90000
tp2643
sS'image_size'
p2644
(I194
I185
tp2645
sS'px_mm_strategy'
p2646
g1350
(tRp2647
sS'pedestal'
p2648
F0
sS'identifier'
p2649
S''
sS'type'
p2650
S''
sS'pixel_size'
p2651
(F0.10992
F0.10992
tp2652
stbag1319
(tRp2653
(I2
(dp2654
(dp2655
S'origin'
p2656
(F0.16488000000000191
F10.1676
F0
tp2657
sS'mu'
p2658
F0
sS'fast_axis'
p2659
(F1
F0
F0
tp2660
sS'parent_slow_axis'
p2661
(F0.0014964262800291656
F-0.99999888035356754
F0
tp2662
sS'name'
p2663
S'ARRAY_D0Q2S2A1'
p2664
sS'raw_image_offset'
p2665
(I0
I0
tp2666
sS'slow_axis'
p2667
(F0
F-1
F1.2246467991473532e-16
tp2668
sS'material'
p2669
S''
sS'mask'
p2670
(lp2671
sS'thickness'
p2672
F0
sS'parent_origin'
p2673
(F74.277168015568435
F-29.329213417479465
F-123.92714613532021
tp2674
sS'parent_fast_axis'
p2675
(F-0.99999888035356754
F-0.0014964262800291656
F0
tp2676
sS'gain'
p2677
F1
sS'trusted_range'
p2678
(F-400
F90000
tp2679
sS'image_size'
p2680
(I194
I185
tp2681
sS'px_mm_strategy'
p2682
g1350
(tRp2683
sS'pedestal'
p2684
F0
sS'identifier'
p2685
S''
sS'type'
p2686
S''
sS'pixel_size'
p2687
(F0.10992
F0.10992
tp2688
stbag1319
(tRp2689
(I2
(dp2690
(dp2691
S'origin'
p2692
(F-21.489360000000005
F10.1676
F0
tp2693
sS'mu'
p2694
F0
sS'fast_axis'
p2695
(F1
F0
F0
tp2696
sS'parent_slow_axis'
p2697
(F-0.00019057580811976941
F-0.9999999818404306
F0
tp2698
sS'name'
p2699
S'ARRAY_D0Q2S3A0'
p2700
sS'raw_image_offset'
p2701
(I0
I0
tp2702
sS'slow_axis'
p2703
(F0
F-1
F1.2246467991473532e-16
tp2704
sS'material'
p2705
S''
sS'mask'
p2706
(lp2707
sS'thickness'
p2708
F0
sS'parent_origin'
p2709
(F74.258585718023227
F-6.7123791419074843
F-123.92714613532021
tp2710
sS'parent_fast_axis'
p2711
(F-0.9999999818404306
F0.00019057580811976941
F0
tp2712
sS'gain'
p2713
F1
sS'trusted_range'
p2714
(F-400
F90000
tp2715
sS'image_size'
p2716
(I194
I185
tp2717
sS'px_mm_strategy'
p2718
g1350
(tRp2719
sS'pedestal'
p2720
F0
sS'identifier'
p2721
S''
sS'type'
p2722
S''
sS'pixel_size'
p2723
(F0.10992
F0.10992
tp2724
stbag1319
(tRp2725
(I2
(dp2726
(dp2727
S'origin'
p2728
(F0.16488000000000369
F10.1676
F0
tp2729
sS'mu'
p2730
F0
sS'fast_axis'
p2731
(F1
F0
F0
tp2732
sS'parent_slow_axis'
p2733
(F-0.00019057580811976941
F-0.9999999818404306
F0
tp2734
sS'name'
p2735
S'ARRAY_D0Q2S3A1'
p2736
sS'raw_image_offset'
p2737
(I0
I0
tp2738
sS'slow_axis'
p2739
(F0
F-1
F1.2246467991473532e-16
tp2740
sS'material'
p2741
S''
sS'mask'
p2742
(lp2743
sS'thickness'
p2744
F0
sS'parent_origin'
p2745
(F74.258585718023227
F-6.7123791419074843
F-123.92714613532021
tp2746
sS'parent_fast_axis'
p2747
(F-0.9999999818404306
F0.00019057580811976941
F0
tp2748
sS'gain'
p2749
F1
sS'trusted_range'
p2750
(F-400
F90000
tp2751
sS'image_size'
p2752
(I194
I185
tp2753
sS'px_mm_strategy'
p2754
g1350
(tRp2755
sS'pedestal'
p2756
F0
sS'identifier'
p2757
S''
sS'type'
p2758
S''
sS'pixel_size'
p2759
(F0.10992
F0.10992
tp2760
stbag1319
(tRp2761
(I2
(dp2762
(dp2763
S'origin'
p2764
(F-21.489360000000001
F10.1676
F0
tp2765
sS'mu'
p2766
F0
sS'fast_axis'
p2767
(F1
F0
F0
tp2768
sS'parent_slow_axis'
p2769
(F-0.99999998957773617
F0.00014437633965941568
F0
tp2770
sS'name'
p2771
S'ARRAY_D0Q2S4A0'
p2772
sS'raw_image_offset'
p2773
(I0
I0
tp2774
sS'slow_axis'
p2775
(F0
F-1
F1.2246467991473532e-16
tp2776
sS'material'
p2777
S''
sS'mask'
p2778
(lp2779
sS'thickness'
p2780
F0
sS'parent_origin'
p2781
(F62.998686109256603
F-64.522307454675158
F-123.92714613532023
tp2782
sS'parent_fast_axis'
p2783
(F0.00014437633965941568
F0.99999998957773617
F0
tp2784
sS'gain'
p2785
F1
sS'trusted_range'
p2786
(F-400
F90000
tp2787
sS'image_size'
p2788
(I194
I185
tp2789
sS'px_mm_strategy'
p2790
g1350
(tRp2791
sS'pedestal'
p2792
F0
sS'identifier'
p2793
S''
sS'type'
p2794
S''
sS'pixel_size'
p2795
(F0.10992
F0.10992
tp2796
stbag1319
(tRp2797
(I2
(dp2798
(dp2799
S'origin'
p2800
(F0.16488000000000014
F10.1676
F0
tp2801
sS'mu'
p2802
F0
sS'fast_axis'
p2803
(F1
F0
F0
tp2804
sS'parent_slow_axis'
p2805
(F-0.99999998957773617
F0.00014437633965941568
F0
tp2806
sS'name'
p2807
S'ARRAY_D0Q2S4A1'
p2808
sS'raw_image_offset'
p2809
(I0
I0
tp2810
sS'slow_axis'
p2811
(F0
F-1
F1.2246467991473532e-16
tp2812
sS'material'
p2813
S''
sS'mask'
p2814
(lp2815
sS'thickness'
p2816
F0
sS'parent_origin'
p2817
(F62.998686109256603
F-64.522307454675158
F-123.92714613532023
tp2818
sS'parent_fast_axis'
p2819
(F0.00014437633965941568
F0.99999998957773617
F0
tp2820
sS'gain'
p2821
F1
sS'trusted_range'
p2822
(F-400
F90000
tp2823
sS'image_size'
p2824
(I194
I185
tp2825
sS'px_mm_strategy'
p2826
g1350
(tRp2827
sS'pedestal'
p2828
F0
sS'identifier'
p2829
S''
sS'type'
p2830
S''
sS'pixel_size'
p2831
(F0.10992
F0.10992
tp2832
stbag1319
(tRp2833
(I2
(dp2834
(dp2835
S'origin'
p2836
(F-21.489359999999998
F10.1676
F0
tp2837
sS'mu'
p2838
F0
sS'fast_axis'
p2839
(F1
F0
F0
tp2840
sS'parent_slow_axis'
p2841
(F-0.99997207639394203
F-0.0074730470618237545
F0
tp2842
sS'name'
p2843
S'ARRAY_D0Q2S5A0'
p2844
sS'raw_image_offset'
p2845
(I0
I0
tp2846
sS'slow_axis'
p2847
(F0
F-1
F1.2246467991473532e-16
tp2848
sS'material'
p2849
S''
sS'mask'
p2850
(lp2851
sS'thickness'
p2852
F0
sS'parent_origin'
p2853
(F85.381240012713619
F-64.421138721424313
F-123.92714613532011
tp2854
sS'parent_fast_axis'
p2855
(F-0.0074730470618237545
F0.99997207639394203
F0
tp2856
sS'gain'
p2857
F1
sS'trusted_range'
p2858
(F-400
F90000
tp2859
sS'image_size'
p2860
(I194
I185
tp2861
sS'px_mm_strategy'
p2862
g1350
(tRp2863
sS'pedestal'
p2864
F0
sS'identifier'
p2865
S''
sS'type'
p2866
S''
sS'pixel_size'
p2867
(F0.10992
F0.10992
tp2868
stbag1319
(tRp2869
(I2
(dp2870
(dp2871
S'origin'
p2872
(F0.16487999999999658
F10.1676
F0
tp2873
sS'mu'
p2874
F0
sS'fast_axis'
p2875
(F1
F0
F0
tp2876
sS'parent_slow_axis'
p2877
(F-0.99997207639394203
F-0.0074730470618237545
F0
tp2878
sS'name'
p2879
S'ARRAY_D0Q2S5A1'
p2880
sS'raw_image_offset'
p2881
(I0
I0
tp2882
sS'slow_axis'
p2883
(F0
F-1
F1.2246467991473532e-16
tp2884
sS'material'
p2885
S''
sS'mask'
p2886
(lp2887
sS'thickness'
p2888
F0
sS'parent_origin'
p2889
(F85.381240012713619
F-64.421138721424313
F-123.92714613532011
tp2890
sS'parent_fast_axis'
p2891
(F-0.0074730470618237545
F0.99997207639394203
F0
tp2892
sS'gain'
p2893
F1
sS'trusted_range'
p2894
(F-400
F90000
tp2895
sS'image_size'
p2896
(I194
I185
tp2897
sS'px_mm_strategy'
p2898
g1350
(tRp2899
sS'pedestal'
p2900
F0
sS'identifier'
p2901
S''
sS'type'
p2902
S''
sS'pixel_size'
p2903
(F0.10992
F0.10992
tp2904
stbag1319
(tRp2905
(I2
(dp2906
(dp2907
S'origin'
p2908
(F-21.489360000000005
F10.1676
F0
tp2909
sS'mu'
p2910
F0
sS'fast_axis'
p2911
(F1
F0
F0
tp2912
sS'parent_slow_axis'
p2913
(F0.0042475933308720078
F-0.99999097893475797
F0
tp2914
sS'name'
p2915
S'ARRAY_D0Q2S6A0'
p2916
sS'raw_image_offset'
p2917
(I0
I0
tp2918
sS'slow_axis'
p2919
(F0
F-1
F1.2246467991473532e-16
tp2920
sS'material'
p2921
S''
sS'mask'
p2922
(lp2923
sS'thickness'
p2924
F0
sS'parent_origin'
p2925
(F27.795044666882852
F-73.359653549101338
F-123.92714613532017
tp2926
sS'parent_fast_axis'
p2927
(F-0.99999097893475797
F-0.0042475933308720078
F0
tp2928
sS'gain'
p2929
F1
sS'trusted_range'
p2930
(F-400
F90000
tp2931
sS'image_size'
p2932
(I194
I185
tp2933
sS'px_mm_strategy'
p2934
g1350
(tRp2935
sS'pedestal'
p2936
F0
sS'identifier'
p2937
S''
sS'type'
p2938
S''
sS'pixel_size'
p2939
(F0.10992
F0.10992
tp2940
stbag1319
(tRp2941
(I2
(dp2942
(dp2943
S'origin'
p2944
(F0.16487999999999481
F10.1676
F0
tp2945
sS'mu'
p2946
F0
sS'fast_axis'
p2947
(F1
F0
F0
tp2948
sS'parent_slow_axis'
p2949
(F0.0042475933308720078
F-0.99999097893475797
F0
tp2950
sS'name'
p2951
S'ARRAY_D0Q2S6A1'
p2952
sS'raw_image_offset'
p2953
(I0
I0
tp2954
sS'slow_axis'
p2955
(F0
F-1
F1.2246467991473532e-16
tp2956
sS'material'
p2957
S''
sS'mask'
p2958
(lp2959
sS'thickness'
p2960
F0
sS'parent_origin'
p2961
(F27.795044666882852
F-73.359653549101338
F-123.92714613532017
tp2962
sS'parent_fast_axis'
p2963
(F-0.99999097893475797
F-0.0042475933308720078
F0
tp2964
sS'gain'
p2965
F1
sS'trusted_range'
p2966
(F-400
F90000
tp2967
sS'image_size'
p2968
(I194
I185
tp2969
sS'px_mm_strategy'
p2970
g1350
(tRp2971
sS'pedestal'
p2972
F0
sS'identifier'
p2973
S''
sS'type'
p2974
S''
sS'pixel_size'
p2975
(F0.10992
F0.10992
tp2976
stbag1319
(tRp2977
(I2
(dp2978
(dp2979
S'origin'
p2980
(F-21.489360000000005
F10.1676
F0
tp2981
sS'mu'
p2982
F0
sS'fast_axis'
p2983
(F1
F0
F0
tp2984
sS'parent_slow_axis'
p2985
(F0.0012938495906114884
F-0.99999916297626812
F0
tp2986
sS'name'
p2987
S'ARRAY_D0Q2S7A0'
p2988
sS'raw_image_offset'
p2989
(I0
I0
tp2990
sS'slow_axis'
p2991
(F0
F-1
F1.2246467991473532e-16
tp2992
sS'material'
p2993
S''
sS'mask'
p2994
(lp2995
sS'thickness'
p2996
F0
sS'parent_origin'
p2997
(F27.723150567263172
F-50.850391621314607
F-123.9271461353202
tp2998
sS'parent_fast_axis'
p2999
(F-0.99999916297626812
F-0.0012938495906114884
F0
tp3000
sS'gain'
p3001
F1
sS'trusted_range'
p3002
(F-400
F90000
tp3003
sS'image_size'
p3004
(I194
I185
tp3005
sS'px_mm_strategy'
p3006
g1350
(tRp3007
sS'pedestal'
p3008
F0
sS'identifier'
p3009
S''
sS'type'
p3010
S''
sS'pixel_size'
p3011
(F0.10992
F0.10992
tp3012
stbag1319
(tRp3013
(I2
(dp3014
(dp3015
S'origin'
p3016
(F0.16487999999999836
F10.1676
F0
tp3017
sS'mu'
p3018
F0
sS'fast_axis'
p3019
(F1
F0
F0
tp3020
sS'parent_slow_axis'
p3021
(F0.0012938495906114884
F-0.99999916297626812
F0
tp3022
sS'name'
p3023
S'ARRAY_D0Q2S7A1'
p3024
sS'raw_image_offset'
p3025
(I0
I0
tp3026
sS'slow_axis'
p3027
(F0
F-1
F1.2246467991473532e-16
tp3028
sS'material'
p3029
S''
sS'mask'
p3030
(lp3031
sS'thickness'
p3032
F0
sS'parent_origin'
p3033
(F27.723150567263172
F-50.850391621314607
F-123.9271461353202
tp3034
sS'parent_fast_axis'
p3035
(F-0.99999916297626812
F-0.0012938495906114884
F0
tp3036
sS'gain'
p3037
F1
sS'trusted_range'
p3038
(F-400
F90000
tp3039
sS'image_size'
p3040
(I194
I185
tp3041
sS'px_mm_strategy'
p3042
g1350
(tRp3043
sS'pedestal'
p3044
F0
sS'identifier'
p3045
S''
sS'type'
p3046
S''
sS'pixel_size'
p3047
(F0.10992
F0.10992
tp3048
stbag1319
(tRp3049
(I2
(dp3050
(dp3051
S'origin'
p3052
(F-21.489359999999998
F10.1676
F0
tp3053
sS'mu'
p3054
F0
sS'fast_axis'
p3055
(F1
F0
F0
tp3056
sS'parent_slow_axis'
p3057
(F0.0034696345981775319
F-0.99999398079976221
F0
tp3058
sS'name'
p3059
S'ARRAY_D0Q3S0A0'
p3060
sS'raw_image_offset'
p3061
(I0
I0
tp3062
sS'slow_axis'
p3063
(F0
F-1
F1.2246467991473532e-16
tp3064
sS'material'
p3065
S''
sS'mask'
p3066
(lp3067
sS'thickness'
p3068
F0
sS'parent_origin'
p3069
(F-17.12281646810375
F-38.937985482831323
F-123.92714613531986
tp3070
sS'parent_fast_axis'
p3071
(F-0.99999398079976221
F-0.0034696345981775319
F0
tp3072
sS'gain'
p3073
F1
sS'trusted_range'
p3074
(F-400
F90000
tp3075
sS'image_size'
p3076
(I194
I185
tp3077
sS'px_mm_strategy'
p3078
g1350
(tRp3079
sS'pedestal'
p3080
F0
sS'identifier'
p3081
S''
sS'type'
p3082
S''
sS'pixel_size'
p3083
(F0.10992
F0.10992
tp3084
stbag1319
(tRp3085
(I2
(dp3086
(dp3087
S'origin'
p3088
(F0.16488000000000014
F10.1676
F0
tp3089
sS'mu'
p3090
F0
sS'fast_axis'
p3091
(F1
F0
F0
tp3092
sS'parent_slow_axis'
p3093
(F0.0034696345981775319
F-0.99999398079976221
F0
tp3094
sS'name'
p3095
S'ARRAY_D0Q3S0A1'
p3096
sS'raw_image_offset'
p3097
(I0
I0
tp3098
sS'slow_axis'
p3099
(F0
F-1
F1.2246467991473532e-16
tp3100
sS'material'
p3101
S''
sS'mask'
p3102
(lp3103
sS'thickness'
p3104
F0
sS'parent_origin'
p3105
(F-17.12281646810375
F-38.937985482831323
F-123.92714613531986
tp3106
sS'parent_fast_axis'
p3107
(F-0.99999398079976221
F-0.0034696345981775319
F0
tp3108
sS'gain'
p3109
F1
sS'trusted_range'
p3110
(F-400
F90000
tp3111
sS'image_size'
p3112
(I194
I185
tp3113
sS'px_mm_strategy'
p3114
g1350
(tRp3115
sS'pedestal'
p3116
F0
sS'identifier'
p3117
S''
sS'type'
p3118
S''
sS'pixel_size'
p3119
(F0.10992
F0.10992
tp3120
stbag1319
(tRp3121
(I2
(dp3122
(dp3123
S'origin'
p3124
(F-21.489360000000005
F10.1676
F0
tp3125
sS'mu'
p3126
F0
sS'fast_axis'
p3127
(F1
F0
F0
tp3128
sS'parent_slow_axis'
p3129
(F0.00057574432018474709
F-0.99999983425922534
F0
tp3130
sS'name'
p3131
S'ARRAY_D0Q3S1A0'
p3132
sS'raw_image_offset'
p3133
(I0
I0
tp3134
sS'slow_axis'
p3135
(F0
F-1
F1.2246467991473532e-16
tp3136
sS'material'
p3137
S''
sS'mask'
p3138
(lp3139
sS'thickness'
p3140
F0
sS'parent_origin'
p3141
(F-17.224661370076795
F-16.455914568719603
F-123.9271461353198
tp3142
sS'parent_fast_axis'
p3143
(F-0.99999983425922534
F-0.00057574432018474709
F0
tp3144
sS'gain'
p3145
F1
sS'trusted_range'
p3146
(F-400
F90000
tp3147
sS'image_size'
p3148
(I194
I185
tp3149
sS'px_mm_strategy'
p3150
g1350
(tRp3151
sS'pedestal'
p3152
F0
sS'identifier'
p3153
S''
sS'type'
p3154
S''
sS'pixel_size'
p3155
(F0.10992
F0.10992
tp3156
stbag1319
(tRp3157
(I2
(dp3158
(dp3159
S'origin'
p3160
(F0.16487999999999481
F10.1676
F0
tp3161
sS'mu'
p3162
F0
sS'fast_axis'
p3163
(F1
F0
F0
tp3164
sS'parent_slow_axis'
p3165
(F0.00057574432018474709
F-0.99999983425922534
F0
tp3166
sS'name'
p3167
S'ARRAY_D0Q3S1A1'
p3168
sS'raw_image_offset'
p3169
(I0
I0
tp3170
sS'slow_axis'
p3171
(F0
F-1
F1.2246467991473532e-16
tp3172
sS'material'
p3173
S''
sS'mask'
p3174
(lp3175
sS'thickness'
p3176
F0
sS'parent_origin'
p3177
(F-17.224661370076795
F-16.455914568719603
F-123.9271461353198
tp3178
sS'parent_fast_axis'
p3179
(F-0.99999983425922534
F-0.00057574432018474709
F0
tp3180
sS'gain'
p3181
F1
sS'trusted_range'
p3182
(F-400
F90000
tp3183
sS'image_size'
p3184
(I194
I185
tp3185
sS'px_mm_strategy'
p3186
g1350
(tRp3187
sS'pedestal'
p3188
F0
sS'identifier'
p3189
S''
sS'type'
p3190
S''
sS'pixel_size'
p3191
(F0.10992
F0.10992
tp3192
stbag1319
(tRp3193
(I2
(dp3194
(dp3195
S'origin'
p3196
(F-21.489360000000005
F10.1676
F0
tp3197
sS'mu'
p3198
F0
sS'fast_axis'
p3199
(F1
F0
F0
tp3200
sS'parent_slow_axis'
p3201
(F-0.99999968339563072
F-0.0007957440786226206
F0
tp3202
sS'name'
p3203
S'ARRAY_D0Q3S2A0'
p3204
sS'raw_image_offset'
p3205
(I0
I0
tp3206
sS'slow_axis'
p3207
(F0
F-1
F1.2246467991473532e-16
tp3208
sS'material'
p3209
S''
sS'mask'
p3210
(lp3211
sS'thickness'
p3212
F0
sS'parent_origin'
p3213
(F-28.688080721930021
F-74.597717184957787
F-123.92714613531999
tp3214
sS'parent_fast_axis'
p3215
(F-0.0007957440786226206
F0.99999968339563072
F0
tp3216
sS'gain'
p3217
F1
sS'trusted_range'
p3218
(F-400
F90000
tp3219
sS'image_size'
p3220
(I194
I185
tp3221
sS'px_mm_strategy'
p3222
g1350
(tRp3223
sS'pedestal'
p3224
F0
sS'identifier'
p3225
S''
sS'type'
p3226
S''
sS'pixel_size'
p3227
(F0.10992
F0.10992
tp3228
stbag1319
(tRp3229
(I2
(dp3230
(dp3231
S'origin'
p3232
(F0.16488000000000369
F10.1676
F0
tp3233
sS'mu'
p3234
F0
sS'fast_axis'
p3235
(F1
F0
F0
tp3236
sS'parent_slow_axis'
p3237
(F-0.99999968339563072
F-0.0007957440786226206
F0
tp3238
sS'name'
p3239
S'ARRAY_D0Q3S2A1'
p3240
sS'raw_image_offset'
p3241
(I0
I0
tp3242
sS'slow_axis'
p3243
(F0
F-1
F1.2246467991473532e-16
tp3244
sS'material'
p3245
S''
sS'mask'
p3246
(lp3247
sS'thickness'
p3248
F0
sS'parent_origin'
p3249
(F-28.688080721930021
F-74.597717184957787
F-123.92714613531999
tp3250
sS'parent_fast_axis'
p3251
(F-0.0007957440786226206
F0.99999968339563072
F0
tp3252
sS'gain'
p3253
F1
sS'trusted_range'
p3254
(F-400
F90000
tp3255
sS'image_size'
p3256
(I194
I185
tp3257
sS'px_mm_strategy'
p3258
g1350
(tRp3259
sS'pedestal'
p3260
F0
sS'identifier'
p3261
S''
sS'type'
p3262
S''
sS'pixel_size'
p3263
(F0.10992
F0.10992
tp3264
stbag1319
(tRp3265
(I2
(dp3266
(dp3267
S'origin'
p3268
(F-21.489359999999998
F10.1676
F0
tp3269
sS'mu'
p3270
F0
sS'fast_axis'
p3271
(F1
F0
F0
tp3272
sS'parent_slow_axis'
p3273
(F-0.99999931090155536
F0.0011739661044641993
F0
tp3274
sS'name'
p3275
S'ARRAY_D0Q3S3A0'
p3276
sS'raw_image_offset'
p3277
(I0
I0
tp3278
sS'slow_axis'
p3279
(F0
F-1
F1.2246467991473532e-16
tp3280
sS'material'
p3281
S''
sS'mask'
p3282
(lp3283
sS'thickness'
p3284
F0
sS'parent_origin'
p3285
(F-6.0481496423995775
F-74.476413164498751
F-123.92714613531993
tp3286
sS'parent_fast_axis'
p3287
(F0.0011739661044641993
F0.99999931090155536
F0
tp3288
sS'gain'
p3289
F1
sS'trusted_range'
p3290
(F-400
F90000
tp3291
sS'image_size'
p3292
(I194
I185
tp3293
sS'px_mm_strategy'
p3294
g1350
(tRp3295
sS'pedestal'
p3296
F0
sS'identifier'
p3297
S''
sS'type'
p3298
S''
sS'pixel_size'
p3299
(F0.10992
F0.10992
tp3300
stbag1319
(tRp3301
(I2
(dp3302
(dp3303
S'origin'
p3304
(F0.16487999999999836
F10.1676
F0
tp3305
sS'mu'
p3306
F0
sS'fast_axis'
p3307
(F1
F0
F0
tp3308
sS'parent_slow_axis'
p3309
(F-0.99999931090155536
F0.0011739661044641993
F0
tp3310
sS'name'
p3311
S'ARRAY_D0Q3S3A1'
p3312
sS'raw_image_offset'
p3313
(I0
I0
tp3314
sS'slow_axis'
p3315
(F0
F-1
F1.2246467991473532e-16
tp3316
sS'material'
p3317
S''
sS'mask'
p3318
(lp3319
sS'thickness'
p3320
F0
sS'parent_origin'
p3321
(F-6.0481496423995775
F-74.476413164498751
F-123.92714613531993
tp3322
sS'parent_fast_axis'
p3323
(F0.0011739661044641993
F0.99999931090155536
F0
tp3324
sS'gain'
p3325
F1
sS'trusted_range'
p3326
(F-400
F90000
tp3327
sS'image_size'
p3328
(I194
I185
tp3329
sS'px_mm_strategy'
p3330
g1350
(tRp3331
sS'pedestal'
p3332
F0
sS'identifier'
p3333
S''
sS'type'
p3334
S''
sS'pixel_size'
p3335
(F0.10992
F0.10992
tp3336
stbag1319
(tRp3337
(I2
(dp3338
(dp3339
S'origin'
p3340
(F-21.489359999999998
F10.1676
F0
tp3341
sS'mu'
p3342
F0
sS'fast_axis'
p3343
(F1
F0
F0
tp3344
sS'parent_slow_axis'
p3345
(F-0.0030344417203105453
F0.99999539607112509
F0
tp3346
sS'name'
p3347
S'ARRAY_D0Q3S4A0'
p3348
sS'raw_image_offset'
p3349
(I0
I0
tp3350
sS'slow_axis'
p3351
(F0
F-1
F1.2246467991473532e-16
tp3352
sS'material'
p3353
S''
sS'mask'
p3354
(lp3355
sS'thickness'
p3356
F0
sS'parent_origin'
p3357
(F-63.987451708419648
F-62.867757073557236
F-123.92714613532006
tp3358
sS'parent_fast_axis'
p3359
(F0.99999539607112509
F0.0030344417203105453
F0
tp3360
sS'gain'
p3361
F1
sS'trusted_range'
p3362
(F-400
F90000
tp3363
sS'image_size'
p3364
(I194
I185
tp3365
sS'px_mm_strategy'
p3366
g1350
(tRp3367
sS'pedestal'
p3368
F0
sS'identifier'
p3369
S''
sS'type'
p3370
S''
sS'pixel_size'
p3371
(F0.10992
F0.10992
tp3372
stbag1319
(tRp3373
(I2
(dp3374
(dp3375
S'origin'
p3376
(F0.16487999999999658
F10.1676
F0
tp3377
sS'mu'
p3378
F0
sS'fast_axis'
p3379
(F1
F0
F0
tp3380
sS'parent_slow_axis'
p3381
(F-0.0030344417203105453
F0.99999539607112509
F0
tp3382
sS'name'
p3383
S'ARRAY_D0Q3S4A1'
p3384
sS'raw_image_offset'
p3385
(I0
I0
tp3386
sS'slow_axis'
p3387
(F0
F-1
F1.2246467991473532e-16
tp3388
sS'material'
p3389
S''
sS'mask'
p3390
(lp3391
sS'thickness'
p3392
F0
sS'parent_origin'
p3393
(F-63.987451708419648
F-62.867757073557236
F-123.92714613532006
tp3394
sS'parent_fast_axis'
p3395
(F0.99999539607112509
F0.0030344417203105453
F0
tp3396
sS'gain'
p3397
F1
sS'trusted_range'
p3398
(F-400
F90000
tp3399
sS'image_size'
p3400
(I194
I185
tp3401
sS'px_mm_strategy'
p3402
g1350
(tRp3403
sS'pedestal'
p3404
F0
sS'identifier'
p3405
S''
sS'type'
p3406
S''
sS'pixel_size'
p3407
(F0.10992
F0.10992
tp3408
stbag1319
(tRp3409
(I2
(dp3410
(dp3411
S'origin'
p3412
(F-21.489360000000012
F10.1676
F0
tp3413
sS'mu'
p3414
F0
sS'fast_axis'
p3415
(F1
F0
F0
tp3416
sS'parent_slow_axis'
p3417
(F-0.0040288921226069524
F0.99999188398119732
F0
tp3418
sS'name'
p3419
S'ARRAY_D0Q3S5A0'
p3420
sS'raw_image_offset'
p3421
(I0
I0
tp3422
sS'slow_axis'
p3423
(F0
F-1
F1.2246467991473532e-16
tp3424
sS'material'
p3425
S''
sS'mask'
p3426
(lp3427
sS'thickness'
p3428
F0
sS'parent_origin'
p3429
(F-63.942048119993082
F-85.455136786786909
F-123.92714613532017
tp3430
sS'parent_fast_axis'
p3431
(F0.99999188398119732
F0.0040288921226069524
F0
tp3432
sS'gain'
p3433
F1
sS'trusted_range'
p3434
(F-400
F90000
tp3435
sS'image_size'
p3436
(I194
I185
tp3437
sS'px_mm_strategy'
p3438
g1350
(tRp3439
sS'pedestal'
p3440
F0
sS'identifier'
p3441
S''
sS'type'
p3442
S''
sS'pixel_size'
p3443
(F0.10992
F0.10992
tp3444
stbag1319
(tRp3445
(I2
(dp3446
(dp3447
S'origin'
p3448
(F0.16487999999999836
F10.1676
F0
tp3449
sS'mu'
p3450
F0
sS'fast_axis'
p3451
(F1
F0
F0
tp3452
sS'parent_slow_axis'
p3453
(F-0.0040288921226069524
F0.99999188398119732
F0
tp3454
sS'name'
p3455
S'ARRAY_D0Q3S5A1'
p3456
sS'raw_image_offset'
p3457
(I0
I0
tp3458
sS'slow_axis'
p3459
(F0
F-1
F1.2246467991473532e-16
tp3460
sS'material'
p3461
S''
sS'mask'
p3462
(lp3463
sS'thickness'
p3464
F0
sS'parent_origin'
p3465
(F-63.942048119993082
F-85.455136786786909
F-123.92714613532017
tp3466
sS'parent_fast_axis'
p3467
(F0.99999188398119732
F0.0040288921226069524
F0
tp3468
sS'gain'
p3469
F1
sS'trusted_range'
p3470
(F-400
F90000
tp3471
sS'image_size'
p3472
(I194
I185
tp3473
sS'px_mm_strategy'
p3474
g1350
(tRp3475
sS'pedestal'
p3476
F0
sS'identifier'
p3477
S''
sS'type'
p3478
S''
sS'pixel_size'
p3479
(F0.10992
F0.10992
tp3480
stbag1319
(tRp3481
(I2
(dp3482
(dp3483
S'origin'
p3484
(F-21.489359999999998
F10.1676
F0
tp3485
sS'mu'
p3486
F0
sS'fast_axis'
p3487
(F1
F0
F0
tp3488
sS'parent_slow_axis'
p3489
(F-0.99999913042128463
F-0.0013187708954736108
F0
tp3490
sS'name'
p3491
S'ARRAY_D0Q3S6A0'
p3492
sS'raw_image_offset'
p3493
(I0
I0
tp3494
sS'slow_axis'
p3495
(F0
F-1
F1.2246467991473532e-16
tp3496
sS'material'
p3497
S''
sS'mask'
p3498
(lp3499
sS'thickness'
p3500
F0
sS'parent_origin'
p3501
(F-73.599780327694219
F-27.58219607444962
F-123.92714613532009
tp3502
sS'parent_fast_axis'
p3503
(F-0.0013187708954736108
F0.99999913042128463
F0
tp3504
sS'gain'
p3505
F1
sS'trusted_range'
p3506
(F-400
F90000
tp3507
sS'image_size'
p3508
(I194
I185
tp3509
sS'px_mm_strategy'
p3510
g1350
(tRp3511
sS'pedestal'
p3512
F0
sS'identifier'
p3513
S''
sS'type'
p3514
S''
sS'pixel_size'
p3515
(F0.10992
F0.10992
tp3516
stbag1319
(tRp3517
(I2
(dp3518
(dp3519
S'origin'
p3520
(F0.16487999999999836
F10.1676
F0
tp3521
sS'mu'
p3522
F0
sS'fast_axis'
p3523
(F1
F0
F0
tp3524
sS'parent_slow_axis'
p3525
(F-0.99999913042128463
F-0.0013187708954736108
F0
tp3526
sS'name'
p3527
S'ARRAY_D0Q3S6A1'
p3528
sS'raw_image_offset'
p3529
(I0
I0
tp3530
sS'slow_axis'
p3531
(F0
F-1
F1.2246467991473532e-16
tp3532
sS'material'
p3533
S''
sS'mask'
p3534
(lp3535
sS'thickness'
p3536
F0
sS'parent_origin'
p3537
(F-73.599780327694219
F-27.58219607444962
F-123.92714613532009
tp3538
sS'parent_fast_axis'
p3539
(F-0.0013187708954736108
F0.99999913042128463
F0
tp3540
sS'gain'
p3541
F1
sS'trusted_range'
p3542
(F-400
F90000
tp3543
sS'image_size'
p3544
(I194
I185
tp3545
sS'px_mm_strategy'
p3546
g1350
(tRp3547
sS'pedestal'
p3548
F0
sS'identifier'
p3549
S''
sS'type'
p3550
S''
sS'pixel_size'
p3551
(F0.10992
F0.10992
tp3552
stbag1319
(tRp3553
(I2
(dp3554
(dp3555
S'origin'
p3556
(F-21.489360000000005
F10.1676
F0
tp3557
sS'mu'
p3558
F0
sS'fast_axis'
p3559
(F1
F0
F0
tp3560
sS'parent_slow_axis'
p3561
(F-0.99999434292907208
F-0.0033636453222126959
F0
tp3562
sS'name'
p3563
S'ARRAY_D0Q3S7A0'
p3564
sS'raw_image_offset'
p3565
(I0
I0
tp3566
sS'slow_axis'
p3567
(F0
F-1
F1.2246467991473532e-16
tp3568
sS'material'
p3569
S''
sS'mask'
p3570
(lp3571
sS'thickness'
p3572
F0
sS'parent_origin'
p3573
(F-50.134904238076963
F-27.559636822582547
F-123.92714613531975
tp3574
sS'parent_fast_axis'
p3575
(F-0.0033636453222126959
F0.99999434292907208
F0
tp3576
sS'gain'
p3577
F1
sS'trusted_range'
p3578
(F-400
F90000
tp3579
sS'image_size'
p3580
(I194
I185
tp3581
sS'px_mm_strategy'
p3582
g1350
(tRp3583
sS'pedestal'
p3584
F0
sS'identifier'
p3585
S''
sS'type'
p3586
S''
sS'pixel_size'
p3587
(F0.10992
F0.10992
tp3588
stbag1319
(tRp3589
(I2
(dp3590
(dp3591
S'origin'
p3592
(F0.16488000000000191
F10.1676
F0
tp3593
sS'mu'
p3594
F0
sS'fast_axis'
p3595
(F1
F0
F0
tp3596
sS'parent_slow_axis'
p3597
(F-0.99999434292907208
F-0.0033636453222126959
F0
tp3598
sS'name'
p3599
S'ARRAY_D0Q3S7A1'
p3600
sS'raw_image_offset'
p3601
(I0
I0
tp3602
sS'slow_axis'
p3603
(F0
F-1
F1.2246467991473532e-16
tp3604
sS'material'
p3605
S''
sS'mask'
p3606
(lp3607
sS'thickness'
p3608
F0
sS'parent_origin'
p3609
(F-50.134904238076963
F-27.559636822582547
F-123.92714613531975
tp3610
sS'parent_fast_axis'
p3611
(F-0.0033636453222126959
F0.99999434292907208
F0
tp3612
sS'gain'
p3613
F1
sS'trusted_range'
p3614
(F-400
F90000
tp3615
sS'image_size'
p3616
(I194
I185
tp3617
sS'px_mm_strategy'
p3618
g1350
(tRp3619
sS'pedestal'
p3620
F0
sS'identifier'
p3621
S''
sS'type'
p3622
S''
sS'pixel_size'
p3623
(F0.10992
F0.10992
tp3624
stbastb.