cdxtbx_model_ext
Beam
p1
((F7.010833160725592e-06
F-3.710515413340211e-06
F0.99999999996854028
tF1.3852982949319235
F0
F0
(F0
F1
F0
tF0.999
F0
F1
tRp2
((dp3
cscitbx_array_family_flex_ext
vec3_double
p4
(tRp5
(cscitbx_array_family_flex_ext
grid
p6
((I0
t(I0
tI01
tRp7
(I0
tbS'\x00'
tbtb.