cdxtbx_model_ext
Crystal
p1
((F11.393456033858481
F22.386943291541183
F-74.86830009958129
t(F74.468225240849009
F19.820457149565136
F17.259239206742002
t(F11.435526847068138
F-35.291190903215536
F-8.8124308446646609
tccctbx_sgtbx_ext
space_group
p2
(S'-P 4 2'
tRp3
(tbtRp4
((dp5
cscitbx_array_family_flex_ext
mat3_double
p6
(tRp7
(cscitbx_array_family_flex_ext
grid
p8
((I0
t(I0
tI01
tRp9
(I0
tbS'\x00'
tbcscitbx_array_family_flex_ext
double
p10
(tRp11
(g8
((I0
I0
t(I0
I0
tI01
tRp12
(I0
I0
tbS'\x00'
tbg10
(tRp13
(g8
((I0
I0
I0
t(I0
I0
I0
tI01
tRp14
(I0
I0
I0
tbS'\x00'
tbtb.